;
; File generated by cc65 v 2.18 - Ubuntu 2.19-1
;
	.fopt		compiler,"cc65 v 2.18 - Ubuntu 2.19-1"
	.setcpu		"6502"
	.smart		on
	.autoimport	on
	.case		on
	.debuginfo	off
	.importzp	sp, sreg, regsave, regbank
	.importzp	tmp1, tmp2, tmp3, tmp4, ptr1, ptr2, ptr3, ptr4
	.macpack	longbranch
	.forceimport	__STARTUP__
	.export		_palette
	.export		_main

.segment	"RODATA"

_palette:
	.byte	$0F
	.byte	$00
	.byte	$10
	.byte	$30
	.byte	$0F
	.byte	$09
	.byte	$19
	.byte	$29
	.byte	$0F
	.byte	$01
	.byte	$21
	.byte	$31
	.byte	$0F
	.byte	$16
	.byte	$27
	.byte	$37
	.byte	$0F
	.byte	$11
	.byte	$21
	.byte	$31
	.byte	$0F
	.byte	$06
	.byte	$16
	.byte	$26
	.byte	$0F
	.byte	$07
	.byte	$17
	.byte	$27
	.byte	$0F
	.byte	$30
	.byte	$30
	.byte	$30
_sin_table:
	.byte	$00
	.byte	$01
	.byte	$02
	.byte	$01
	.byte	$00
	.byte	$FF
	.byte	$FE
	.byte	$FF
_cos_table:
	.byte	$02
	.byte	$01
	.byte	$00
	.byte	$FF
	.byte	$FE
	.byte	$FF
	.byte	$00
	.byte	$01

.segment	"BSS"

_game_state:
	.res	1,$00
_frame_count:
	.res	1,$00
_scroll_y:
	.res	1,$00
_pad_now:
	.res	1,$00
_pad_old:
	.res	1,$00
_pad_new:
	.res	1,$00
_player_x:
	.res	1,$00
_player_y:
	.res	1,$00
_player_hp:
	.res	1,$00
_player_inv:
	.res	1,$00
_enemy_x:
	.res	1,$00
_enemy_y:
	.res	1,$00
_enemy_speed:
	.res	1,$00
_enemy_on:
	.res	1,$00
_enemy_next_x:
	.res	1,$00
_enemy_warn_timer:
	.res	1,$00
_position:
	.res	1,$00
_lap_count:
	.res	1,$00
_score:
	.res	2,$00
_distance:
	.res	2,$00
_obs_x:
	.res	4,$00
_obs_y:
	.res	4,$00
_obs_on:
	.res	4,$00
_bullet_x:
	.res	16,$00
_bullet_y:
	.res	16,$00
_bullet_dx:
	.res	16,$00
_bullet_dy:
	.res	16,$00
_bullet_on:
	.res	16,$00
_bullet_timer:
	.res	1,$00
_pit_timer:
	.res	1,$00
_rnd_seed:
	.res	1,$00
_win_timer:
	.res	1,$00
_confetti_x:
	.res	12,$00
_confetti_y:
	.res	12,$00
_confetti_color:
	.res	12,$00
_pattern_phase:
	.res	1,$00
_pattern_type:
	.res	1,$00

; ---------------------------------------------------------------
; void __near__ wait_vblank (void)
; ---------------------------------------------------------------

.segment	"CODE"

.proc	_wait_vblank: near

.segment	"CODE"

;
; while (!(PPU_STATUS & 0x80));
;
L07E7:	lda     $2002
	and     #$80
	beq     L07E7
;
; }
;
	rts

.endproc

; ---------------------------------------------------------------
; void __near__ ppu_off (void)
; ---------------------------------------------------------------

.segment	"CODE"

.proc	_ppu_off: near

.segment	"CODE"

;
; PPU_MASK = 0x00;
;
	lda     #$00
	sta     $2001
;
; }
;
	rts

.endproc

; ---------------------------------------------------------------
; void __near__ ppu_on (void)
; ---------------------------------------------------------------

.segment	"CODE"

.proc	_ppu_on: near

.segment	"CODE"

;
; PPU_MASK = 0x1E;
;
	lda     #$1E
	sta     $2001
;
; }
;
	rts

.endproc

; ---------------------------------------------------------------
; void __near__ ppu_addr (unsigned int)
; ---------------------------------------------------------------

.segment	"CODE"

.proc	_ppu_addr: near

.segment	"CODE"

;
; static void ppu_addr(unsigned int addr) {
;
	jsr     pushax
;
; PPU_ADDR = (unsigned char)(addr >> 8);
;
	ldy     #$01
	lda     (sp),y
	sta     $2006
;
; PPU_ADDR = (unsigned char)(addr);
;
	dey
	lda     (sp),y
	sta     $2006
;
; }
;
	jmp     incsp2

.endproc

; ---------------------------------------------------------------
; unsigned char __near__ read_pad (void)
; ---------------------------------------------------------------

.segment	"CODE"

.proc	_read_pad: near

.segment	"CODE"

;
; unsigned char result = 0;
;
	lda     #$00
	jsr     pusha
;
; JOYPAD1 = 1;
;
	jsr     decsp1
	lda     #$01
	sta     $4016
;
; JOYPAD1 = 0;
;
	lda     #$00
	sta     $4016
;
; for (i = 0; i < 8; ++i) {
;
	tay
L07E8:	sta     (sp),y
	cmp     #$08
	bcs     L004E
;
; result <<= 1;
;
	iny
	lda     (sp),y
	asl     a
	sta     (sp),y
;
; result |= (JOYPAD1 & 1);
;
	lda     $4016
	and     #$01
	ora     (sp),y
	sta     (sp),y
;
; for (i = 0; i < 8; ++i) {
;
	dey
	clc
	lda     #$01
	adc     (sp),y
	jmp     L07E8
;
; return result;
;
L004E:	iny
	ldx     #$00
	lda     (sp),y
;
; }
;
	jmp     incsp2

.endproc

; ---------------------------------------------------------------
; unsigned char __near__ rnd (void)
; ---------------------------------------------------------------

.segment	"CODE"

.proc	_rnd: near

.segment	"CODE"

;
; rnd_seed ^= (rnd_seed << 5);
;
	ldx     #$00
	lda     _rnd_seed
	jsr     aslax4
	stx     tmp1
	asl     a
	rol     tmp1
	eor     _rnd_seed
	sta     _rnd_seed
;
; rnd_seed ^= (rnd_seed >> 3);
;
	lsr     a
	lsr     a
	lsr     a
	eor     _rnd_seed
	sta     _rnd_seed
;
; rnd_seed ^= (rnd_seed << 7);
;
	asl     a
	asl     a
	asl     a
	asl     a
	asl     a
	asl     a
	asl     a
	eor     _rnd_seed
	sta     _rnd_seed
;
; if (rnd_seed == 0) rnd_seed = 42;
;
	ldx     #$00
	lda     _rnd_seed
	bne     L07E9
	lda     #$2A
	sta     _rnd_seed
;
; return rnd_seed;
;
L07E9:	lda     _rnd_seed
;
; }
;
	rts

.endproc

; ---------------------------------------------------------------
; void __near__ init_win_animation (void)
; ---------------------------------------------------------------

.segment	"CODE"

.proc	_init_win_animation: near

.segment	"CODE"

;
; win_timer = 0;
;
	jsr     decsp1
	lda     #$00
	sta     _win_timer
;
; for (i = 0; i < MAX_CONFETTI; ++i) {
;
	tay
L07EA:	sta     (sp),y
	cmp     #$0C
	bcs     L0598
;
; confetti_x[i] = 32 + (rnd() & 0x7F) + (rnd() & 0x3F);  // Spread across screen
;
	lda     #<(_confetti_x)
	ldx     #>(_confetti_x)
	clc
	adc     (sp),y
	bcc     L05A1
	inx
L05A1:	jsr     pushax
	jsr     _rnd
	ldx     #$00
	and     #$7F
	clc
	adc     #$20
	bcc     L05A4
	inx
L05A4:	jsr     pushax
	jsr     _rnd
	and     #$3F
	jsr     tosadda0
	ldy     #$00
	jsr     staspidx
;
; confetti_y[i] = rnd() & 0x1F;  // Start near top
;
	lda     #<(_confetti_y)
	ldx     #>(_confetti_y)
	ldy     #$00
	clc
	adc     (sp),y
	bcc     L05A8
	inx
L05A8:	jsr     pushax
	jsr     _rnd
	and     #$1F
	ldy     #$00
	jsr     staspidx
;
; confetti_color[i] = rnd() & 0x03;  // Random palette
;
	lda     #<(_confetti_color)
	ldx     #>(_confetti_color)
	ldy     #$00
	clc
	adc     (sp),y
	bcc     L05AC
	inx
L05AC:	jsr     pushax
	jsr     _rnd
	and     #$03
	ldy     #$00
	jsr     staspidx
;
; for (i = 0; i < MAX_CONFETTI; ++i) {
;
	ldy     #$00
	clc
	lda     #$01
	adc     (sp),y
	jmp     L07EA
;
; }
;
L0598:	jmp     incsp1

.endproc

; ---------------------------------------------------------------
; void __near__ clear_sprites (void)
; ---------------------------------------------------------------

.segment	"CODE"

.proc	_clear_sprites: near

.segment	"CODE"

;
; for (i = 0; i < 64; ++i) {
;
	jsr     decsp1
	lda     #$00
	tay
L07EB:	sta     (sp),y
	cmp     #$40
	bcs     L006D
;
; OAM[i * 4] = 0xFF;
;
	ldx     #$00
	lda     (sp),y
	jsr     shlax2
	inx
	inx
	sta     ptr1
	stx     ptr1+1
	lda     #$FF
	sta     (ptr1),y
;
; for (i = 0; i < 64; ++i) {
;
	clc
	lda     #$01
	adc     (sp),y
	jmp     L07EB
;
; }
;
L006D:	jmp     incsp1

.endproc

; ---------------------------------------------------------------
; unsigned char __near__ set_sprite (unsigned char, unsigned char, unsigned char, unsigned char, unsigned char)
; ---------------------------------------------------------------

.segment	"CODE"

.proc	_set_sprite: near

.segment	"CODE"

;
; unsigned char tile, unsigned char attr) {
;
	jsr     pusha
;
; unsigned char idx = id * 4;
;
	ldy     #$04
	lda     (sp),y
	asl     a
	asl     a
	jsr     pusha
;
; OAM[idx] = y;
;
	ldy     #$00
	lda     (sp),y
	tax
	ldy     #$03
	lda     (sp),y
	sta     $0200,x
;
; OAM[idx + 1] = tile;
;
	ldx     #$00
	lda     (sp,x)
	clc
	adc     #$01
	bcc     L0082
	inx
L0082:	inx
	inx
	sta     ptr1
	stx     ptr1+1
	dey
	lda     (sp),y
	ldy     #$00
	sta     (ptr1),y
;
; OAM[idx + 2] = attr;
;
	ldx     #$00
	lda     (sp),y
	clc
	adc     #$02
	bcc     L0087
	inx
L0087:	inx
	inx
	sta     ptr1
	stx     ptr1+1
	iny
	lda     (sp),y
	dey
	sta     (ptr1),y
;
; OAM[idx + 3] = x;
;
	ldx     #$00
	lda     (sp),y
	clc
	adc     #$03
	bcc     L008C
	inx
L008C:	inx
	inx
	sta     ptr1
	stx     ptr1+1
	ldy     #$04
	lda     (sp),y
	ldy     #$00
	sta     (ptr1),y
;
; return id + 1;
;
	ldy     #$05
	lda     (sp),y
	clc
	adc     #$01
	ldx     #$00
;
; }
;
	jmp     incsp6

.endproc

; ---------------------------------------------------------------
; unsigned char __near__ set_car (unsigned char, unsigned char, unsigned char, unsigned char, unsigned char)
; ---------------------------------------------------------------

.segment	"CODE"

.proc	_set_car: near

.segment	"CODE"

;
; unsigned char tile_base, unsigned char attr) {
;
	jsr     pusha
;
; id = set_sprite(id, x,     y,     tile_base,     attr);
;
	jsr     decsp4
	ldy     #$08
	lda     (sp),y
	ldy     #$03
	sta     (sp),y
	ldy     #$07
	lda     (sp),y
	ldy     #$02
	sta     (sp),y
	ldy     #$06
	lda     (sp),y
	ldy     #$01
	sta     (sp),y
	ldy     #$05
	lda     (sp),y
	ldy     #$00
	sta     (sp),y
	ldy     #$04
	lda     (sp),y
	jsr     _set_sprite
	ldy     #$04
	sta     (sp),y
;
; id = set_sprite(id, x + 8, y,     tile_base + 1, attr);
;
	jsr     decsp4
	ldy     #$08
	lda     (sp),y
	ldy     #$03
	sta     (sp),y
	ldy     #$07
	lda     (sp),y
	clc
	adc     #$08
	ldy     #$02
	sta     (sp),y
	ldy     #$06
	lda     (sp),y
	ldy     #$01
	sta     (sp),y
	ldy     #$05
	lda     (sp),y
	clc
	adc     #$01
	ldy     #$00
	sta     (sp),y
	ldy     #$04
	lda     (sp),y
	jsr     _set_sprite
	ldy     #$04
	sta     (sp),y
;
; id = set_sprite(id, x,     y + 8, tile_base + 2, attr);
;
	jsr     decsp4
	ldy     #$08
	lda     (sp),y
	ldy     #$03
	sta     (sp),y
	ldy     #$07
	lda     (sp),y
	ldy     #$02
	sta     (sp),y
	ldy     #$06
	lda     (sp),y
	clc
	adc     #$08
	ldy     #$01
	sta     (sp),y
	ldy     #$05
	lda     (sp),y
	clc
	adc     #$02
	ldy     #$00
	sta     (sp),y
	ldy     #$04
	lda     (sp),y
	jsr     _set_sprite
	ldy     #$04
	sta     (sp),y
;
; id = set_sprite(id, x + 8, y + 8, tile_base + 3, attr);
;
	jsr     decsp4
	ldy     #$08
	lda     (sp),y
	ldy     #$03
	sta     (sp),y
	ldy     #$07
	lda     (sp),y
	clc
	adc     #$08
	ldy     #$02
	sta     (sp),y
	ldy     #$06
	lda     (sp),y
	clc
	adc     #$08
	ldy     #$01
	sta     (sp),y
	ldy     #$05
	lda     (sp),y
	clc
	adc     #$03
	ldy     #$00
	sta     (sp),y
	ldy     #$04
	lda     (sp),y
	jsr     _set_sprite
	ldy     #$04
	sta     (sp),y
;
; return id;
;
	ldx     #$00
	lda     (sp),y
;
; }
;
	jmp     incsp5

.endproc

; ---------------------------------------------------------------
; void __near__ load_palettes (void)
; ---------------------------------------------------------------

.segment	"CODE"

.proc	_load_palettes: near

.segment	"CODE"

;
; ppu_addr(0x3F00);
;
	jsr     decsp1
	ldx     #$3F
	lda     #$00
	jsr     _ppu_addr
;
; for (i = 0; i < 32; ++i) {
;
	lda     #$00
	tay
L07EC:	sta     (sp),y
	cmp     #$20
	bcs     L00B9
;
; PPU_DATA = palette[i];
;
	lda     (sp),y
	tay
	lda     _palette,y
	sta     $2007
;
; for (i = 0; i < 32; ++i) {
;
	ldy     #$00
	clc
	lda     #$01
	adc     (sp),y
	jmp     L07EC
;
; }
;
L00B9:	jmp     incsp1

.endproc

; ---------------------------------------------------------------
; void __near__ draw_road (void)
; ---------------------------------------------------------------

.segment	"CODE"

.proc	_draw_road: near

.segment	"CODE"

;
; ppu_off();
;
	jsr     decsp3
	jsr     _ppu_off
;
; for (row = 0; row < 30; ++row) {
;
	lda     #$00
	ldy     #$02
L07EF:	sta     (sp),y
	cmp     #$1E
	bcs     L00C8
;
; ppu_addr(0x2000 + (unsigned int)row * 32);
;
	lda     (sp),y
	ldx     #$00
	jsr     shlax4
	stx     tmp1
	asl     a
	rol     tmp1
	pha
	lda     tmp1
	clc
	adc     #$20
	tax
	pla
	jsr     _ppu_addr
;
; for (col = 0; col < 32; ++col) {
;
	lda     #$00
	ldy     #$01
L07EE:	sta     (sp),y
	cmp     #$20
	bcs     L00C9
;
; if (col < 8 || col >= 24) {
;
	lda     (sp),y
	cmp     #$08
	bcc     L07F1
	cmp     #$18
	bcc     L07F3
;
; PPU_DATA = TILE_GRASS;
;
L07F1:	lda     #$02
;
; } else if (col == 15 || col == 16) {
;
	jmp     L07ED
L07F3:	lda     (sp),y
	cmp     #$0F
	beq     L07F4
	cmp     #$10
	bne     L07F7
;
; PPU_DATA = ((row & 1) == 0) ? TILE_LINE : TILE_ROAD;
;
L07F4:	iny
	lda     (sp),y
	and     #$01
	bne     L07F7
	lda     #$03
	jmp     L07ED
;
; PPU_DATA = TILE_ROAD;
;
L07F7:	lda     #$01
L07ED:	sta     $2007
;
; for (col = 0; col < 32; ++col) {
;
	ldy     #$01
	clc
	tya
	adc     (sp),y
	jmp     L07EE
;
; for (row = 0; row < 30; ++row) {
;
L00C9:	iny
	clc
	lda     #$01
	adc     (sp),y
	jmp     L07EF
;
; ppu_addr(0x23C0);
;
L00C8:	ldx     #$23
	lda     #$C0
	jsr     _ppu_addr
;
; for (attr_row = 0; attr_row < 8; ++attr_row) {
;
	lda     #$00
	tay
L07F0:	sta     (sp),y
	cmp     #$08
	bcs     L00F4
;
; PPU_DATA = 0x55;  // Columns 0-3: grass
;
	lda     #$55
	sta     $2007
;
; PPU_DATA = 0x55;  // Columns 4-7: grass
;
	sta     $2007
;
; PPU_DATA = 0x00;  // Columns 8-11: road
;
	lda     #$00
	sta     $2007
;
; PPU_DATA = 0x00;  // Columns 12-15: road
;
	sta     $2007
;
; PPU_DATA = 0x00;  // Columns 16-19: road
;
	sta     $2007
;
; PPU_DATA = 0x00;  // Columns 20-23: road
;
	sta     $2007
;
; PPU_DATA = 0x55;  // Columns 24-27: grass
;
	lda     #$55
	sta     $2007
;
; PPU_DATA = 0x55;  // Columns 28-31: grass
;
	sta     $2007
;
; for (attr_row = 0; attr_row < 8; ++attr_row) {
;
	clc
	lda     #$01
	adc     (sp),y
	jmp     L07F0
;
; ppu_on();
;
L00F4:	jsr     _ppu_on
;
; }
;
	jmp     incsp3

.endproc

; ---------------------------------------------------------------
; void __near__ prepare_enemy (void)
; ---------------------------------------------------------------

.segment	"CODE"

.proc	_prepare_enemy: near

.segment	"CODE"

;
; enemy_next_x = ROAD_LEFT + 16 + (rnd() & 0x3F);
;
	jsr     _rnd
	and     #$3F
	clc
	adc     #$50
	sta     _enemy_next_x
;
; if (enemy_next_x > ROAD_RIGHT - 24) {
;
	cmp     #$A9
	bcc     L07F8
;
; enemy_next_x = ROAD_RIGHT - 24;
;
	lda     #$A8
	sta     _enemy_next_x
;
; enemy_warn_timer = 60;  // 1 second warning
;
L07F8:	lda     #$3C
	sta     _enemy_warn_timer
;
; }
;
	rts

.endproc

; ---------------------------------------------------------------
; void __near__ spawn_enemy (void)
; ---------------------------------------------------------------

.segment	"CODE"

.proc	_spawn_enemy: near

.segment	"CODE"

;
; enemy_x = enemy_next_x;
;
	lda     _enemy_next_x
	sta     _enemy_x
;
; enemy_y = 8;  // Start just below top of screen (ahead of player)
;
	lda     #$08
	sta     _enemy_y
;
; enemy_speed = 1;  // Moves down slowly (player catches up via scroll)
;
	lda     #$01
	sta     _enemy_speed
;
; enemy_on = 1;
;
	sta     _enemy_on
;
; enemy_warn_timer = 0;
;
	lda     #$00
	sta     _enemy_warn_timer
;
; }
;
	rts

.endproc

; ---------------------------------------------------------------
; void __near__ spawn_obstacle (void)
; ---------------------------------------------------------------

.segment	"CODE"

.proc	_spawn_obstacle: near

.segment	"CODE"

;
; for (i = 0; i < 4; ++i) {
;
	jsr     decsp1
	lda     #$00
	tay
L07F9:	sta     (sp),y
	cmp     #$04
	bcs     L012C
;
; if (!obs_on[i]) {
;
	lda     (sp),y
	tay
	lda     _obs_on,y
	bne     L012D
;
; obs_x[i] = ROAD_LEFT + 8 + (rnd() & 0x7F);
;
	lda     #<(_obs_x)
	ldx     #>(_obs_x)
	ldy     #$00
	clc
	adc     (sp),y
	bcc     L0139
	inx
L0139:	jsr     pushax
	jsr     _rnd
	and     #$7F
	clc
	adc     #$48
	ldy     #$00
	jsr     staspidx
;
; if (obs_x[i] > ROAD_RIGHT - 16) {
;
	ldy     #$00
	lda     (sp),y
	tay
	lda     _obs_x,y
	cmp     #$B1
	bcc     L013D
;
; obs_x[i] = ROAD_RIGHT - 16;
;
	ldy     #$00
	lda     (sp),y
	tay
	lda     #$B0
	sta     _obs_x,y
;
; obs_y[i] = 0;
;
L013D:	ldy     #$00
	lda     (sp),y
	tay
	lda     #$00
	sta     _obs_y,y
;
; obs_on[i] = 1;
;
	tay
	lda     (sp),y
	tay
	lda     #$01
	sta     _obs_on,y
;
; break;
;
	jmp     incsp1
;
; for (i = 0; i < 4; ++i) {
;
L012D:	ldy     #$00
	clc
	lda     #$01
	adc     (sp),y
	jmp     L07F9
;
; }
;
L012C:	jmp     incsp1

.endproc

; ---------------------------------------------------------------
; unsigned char __near__ abs_diff (unsigned char, unsigned char)
; ---------------------------------------------------------------

.segment	"CODE"

.proc	_abs_diff: near

.segment	"CODE"

;
; static unsigned char abs_diff(unsigned char a, unsigned char b) {
;
	jsr     pusha
;
; if (a >= b) return a - b;
;
	ldy     #$01
	ldx     #$00
	lda     (sp),y
	dey
	cmp     (sp),y
	bcc     L07FC
	iny
	lda     (sp),y
	sec
	dey
	sbc     (sp),y
	jmp     incsp2
;
; return b - a;
;
L07FC:	lda     (sp),y
	sec
	iny
	sbc     (sp),y
;
; }
;
	jmp     incsp2

.endproc

; ---------------------------------------------------------------
; void __near__ spawn_bullet (unsigned char, unsigned char, signed char, signed char)
; ---------------------------------------------------------------

.segment	"CODE"

.proc	_spawn_bullet: near

.segment	"CODE"

;
; static void spawn_bullet(unsigned char x, unsigned char y, signed char dx, signed char dy) {
;
	jsr     pusha
;
; for (i = 0; i < MAX_BULLETS; ++i) {
;
	jsr     decsp1
	lda     #$00
	tay
L07FD:	sta     (sp),y
	cmp     #$10
	bcs     L0154
;
; if (!bullet_on[i]) {
;
	lda     (sp),y
	tay
	lda     _bullet_on,y
	bne     L0155
;
; bullet_x[i] = x;
;
	tay
	lda     (sp),y
	tax
	ldy     #$04
	lda     (sp),y
	sta     _bullet_x,x
;
; bullet_y[i] = y;
;
	ldy     #$00
	lda     (sp),y
	tax
	ldy     #$03
	lda     (sp),y
	sta     _bullet_y,x
;
; bullet_dx[i] = dx;
;
	lda     #<(_bullet_dx)
	ldx     #>(_bullet_dx)
	ldy     #$00
	clc
	adc     (sp),y
	bcc     L0169
	inx
L0169:	sta     ptr1
	stx     ptr1+1
	ldy     #$02
	lda     (sp),y
	ldy     #$00
	sta     (ptr1),y
;
; bullet_dy[i] = dy;
;
	lda     #<(_bullet_dy)
	ldx     #>(_bullet_dy)
	clc
	adc     (sp),y
	bcc     L016E
	inx
L016E:	sta     ptr1
	stx     ptr1+1
	iny
	lda     (sp),y
	dey
	sta     (ptr1),y
;
; bullet_on[i] = 1;
;
	lda     (sp),y
	tay
	lda     #$01
	sta     _bullet_on,y
;
; break;
;
	jmp     incsp5
;
; for (i = 0; i < MAX_BULLETS; ++i) {
;
L0155:	ldy     #$00
	clc
	lda     #$01
	adc     (sp),y
	jmp     L07FD
;
; }
;
L0154:	jmp     incsp5

.endproc

; ---------------------------------------------------------------
; void __near__ spawn_danmaku (void)
; ---------------------------------------------------------------

.segment	"CODE"

.proc	_spawn_danmaku: near

.segment	"CODE"

;
; if (!enemy_on) return;
;
	jsr     decsp6
	lda     _enemy_on
	bne     L081C
;
; }
;
	jmp     incsp6
;
; if (enemy_y < 24) return;  // Don't shoot while entering screen
;
L081C:	lda     _enemy_y
	cmp     #$18
	bcs     L081D
;
; }
;
	jmp     incsp6
;
; cx = enemy_x + 8;  // Center X
;
L081D:	lda     _enemy_x
	clc
	adc     #$08
	ldy     #$05
	sta     (sp),y
;
; cy = enemy_y + 16; // Bullet spawn Y
;
	lda     _enemy_y
	clc
	adc     #$10
	dey
	sta     (sp),y
;
; ++bullet_timer;
;
	inc     _bullet_timer
;
; if (bullet_timer == 0) {
;
	bne     L0804
;
; pattern_type = (pattern_type + 1) & 0x07;
;
	lda     _pattern_type
	clc
	adc     #$01
	and     #$07
	sta     _pattern_type
;
; pattern_phase = 0;
;
	lda     #$00
	sta     _pattern_phase
;
; switch (pattern_type) {
;
L0804:	lda     _pattern_type
;
; }
;
	beq     L0805
	cmp     #$01
	jeq     L080A
	cmp     #$02
	jeq     L080D
	cmp     #$03
	jeq     L080F
	cmp     #$04
	jeq     L0810
	cmp     #$05
	jeq     L0812
	cmp     #$06
	jeq     L0816
	cmp     #$07
	jeq     L0818
	jmp     incsp6
;
; if ((bullet_timer & 0x07) == 0) {
;
L0805:	lda     _bullet_timer
	and     #$07
	beq     L081E
;
; }
;
	jmp     incsp6
;
; angle_idx = (pattern_phase) & 0x07;
;
L081E:	lda     _pattern_phase
	and     #$07
	ldy     #$00
	sta     (sp),y
;
; dx = cos_table[angle_idx];
;
	lda     #<(_cos_table)
	ldx     #>(_cos_table)
	clc
	adc     (sp),y
	bcc     L0806
	inx
L0806:	jsr     ldaidx
	ldy     #$02
	sta     (sp),y
;
; dy = 1 + ((sin_table[angle_idx] + 2) >> 1);  // 1-2 speed
;
	lda     #<(_sin_table)
	ldx     #>(_sin_table)
	ldy     #$00
	clc
	adc     (sp),y
	bcc     L0807
	inx
L0807:	jsr     ldaidx
	clc
	adc     #$02
	bcc     L01B1
	inx
L01B1:	jsr     asrax1
	clc
	adc     #$01
	cmp     #$80
	iny
	sta     (sp),y
;
; spawn_bullet(cx, cy, dx, dy);
;
	jsr     decsp3
	ldy     #$08
	lda     (sp),y
	ldy     #$02
	sta     (sp),y
	ldy     #$07
	lda     (sp),y
	ldy     #$01
	sta     (sp),y
	ldy     #$05
	lda     (sp),y
	ldy     #$00
	sta     (sp),y
	ldy     #$04
	lda     (sp),y
	jsr     _spawn_bullet
;
; angle_idx = (pattern_phase + 4) & 0x07;
;
	lda     _pattern_phase
	clc
	adc     #$04
	and     #$07
	ldy     #$00
	sta     (sp),y
;
; dx = cos_table[angle_idx];
;
	lda     #<(_cos_table)
	ldx     #>(_cos_table)
	clc
	adc     (sp),y
	bcc     L0808
	inx
L0808:	jsr     ldaidx
	ldy     #$02
	sta     (sp),y
;
; dy = 1 + ((sin_table[angle_idx] + 2) >> 1);
;
	lda     #<(_sin_table)
	ldx     #>(_sin_table)
	ldy     #$00
	clc
	adc     (sp),y
	bcc     L0809
	inx
L0809:	jsr     ldaidx
	clc
	adc     #$02
	bcc     L01C7
	inx
L01C7:	jsr     asrax1
	clc
	adc     #$01
	cmp     #$80
	iny
	sta     (sp),y
;
; spawn_bullet(cx, cy, dx, dy);
;
	jsr     decsp3
	ldy     #$08
	lda     (sp),y
	ldy     #$02
	sta     (sp),y
	ldy     #$07
	lda     (sp),y
	ldy     #$01
	sta     (sp),y
	ldy     #$05
	lda     (sp),y
	ldy     #$00
	sta     (sp),y
	ldy     #$04
	lda     (sp),y
	jsr     _spawn_bullet
;
; ++pattern_phase;
;
	inc     _pattern_phase
;
; break;
;
	jmp     incsp6
;
; if ((bullet_timer & 0x1F) == 0) {
;
L080A:	lda     _bullet_timer
	and     #$1F
	beq     L081F
;
; }
;
	jmp     incsp6
;
; for (i = 0; i < 6; ++i) {
;
L081F:	dey
L0801:	sta     (sp),y
	cmp     #$06
	bcs     L080C
;
; angle_idx = (i + pattern_phase) & 0x07;
;
	lda     (sp),y
	clc
	adc     _pattern_phase
	and     #$07
	ldy     #$00
	sta     (sp),y
;
; dx = cos_table[angle_idx];
;
	lda     #<(_cos_table)
	ldx     #>(_cos_table)
	clc
	adc     (sp),y
	bcc     L080B
	inx
L080B:	jsr     ldaidx
	ldy     #$02
	sta     (sp),y
;
; dy = 1;
;
	lda     #$01
	dey
	sta     (sp),y
;
; spawn_bullet(cx, cy, dx, dy);
;
	jsr     decsp3
	ldy     #$08
	lda     (sp),y
	ldy     #$02
	sta     (sp),y
	ldy     #$07
	lda     (sp),y
	ldy     #$01
	sta     (sp),y
	ldy     #$05
	lda     (sp),y
	ldy     #$00
	sta     (sp),y
	ldy     #$04
	lda     (sp),y
	jsr     _spawn_bullet
;
; for (i = 0; i < 6; ++i) {
;
	ldy     #$03
	clc
	lda     #$01
	adc     (sp),y
	jmp     L0801
;
; ++pattern_phase;
;
L080C:	inc     _pattern_phase
;
; break;
;
	jmp     incsp6
;
; if ((bullet_timer & 0x0F) == 0) {
;
L080D:	lda     _bullet_timer
	and     #$0F
	beq     L0820
;
; }
;
	jmp     incsp6
;
; angle_idx = pattern_phase & 0x07;
;
L0820:	lda     _pattern_phase
	and     #$07
	ldy     #$00
	sta     (sp),y
;
; dx = cos_table[angle_idx];
;
	lda     #<(_cos_table)
	ldx     #>(_cos_table)
	clc
	adc     (sp),y
	bcc     L080E
	inx
L080E:	jsr     ldaidx
	ldy     #$02
	sta     (sp),y
;
; spawn_bullet(cx - 8, cy, dx, 1);
;
	jsr     decsp3
	ldy     #$08
	lda     (sp),y
	sec
	sbc     #$08
	ldy     #$02
	sta     (sp),y
	ldy     #$07
	lda     (sp),y
	ldy     #$01
	sta     (sp),y
	ldy     #$05
	lda     (sp),y
	ldy     #$00
	sta     (sp),y
	lda     #$01
	jsr     _spawn_bullet
;
; dx = cos_table[(angle_idx + 4) & 0x07];
;
	ldy     #$00
	lda     (sp),y
	clc
	adc     #$04
	and     #$07
	clc
	adc     #<(_cos_table)
	tay
	lda     #$00
	adc     #>(_cos_table)
	tax
	tya
	ldy     #$00
	jsr     ldaidx
	ldy     #$02
	sta     (sp),y
;
; spawn_bullet(cx + 8, cy, dx, 1);
;
	jsr     decsp3
	ldy     #$08
	lda     (sp),y
	clc
	adc     #$08
	ldy     #$02
	sta     (sp),y
	ldy     #$07
	lda     (sp),y
	ldy     #$01
	sta     (sp),y
	ldy     #$05
	lda     (sp),y
	ldy     #$00
	sta     (sp),y
	lda     #$01
	jsr     _spawn_bullet
;
; ++pattern_phase;
;
	inc     _pattern_phase
;
; break;
;
	jmp     incsp6
;
; if ((bullet_timer & 0x3F) == 0) {
;
L080F:	lda     _bullet_timer
	and     #$3F
	beq     L0821
;
; }
;
	jmp     incsp6
;
; spawn_bullet(cx, cy, 0, 2);       // Down
;
L0821:	jsr     decsp3
	ldy     #$08
	lda     (sp),y
	ldy     #$02
	sta     (sp),y
	ldy     #$07
	lda     (sp),y
	ldy     #$01
	sta     (sp),y
	lda     #$00
	dey
	sta     (sp),y
	lda     #$02
	jsr     _spawn_bullet
;
; spawn_bullet(cx, cy, 2, 1);       // Down-right
;
	jsr     decsp3
	ldy     #$08
	lda     (sp),y
	ldy     #$02
	sta     (sp),y
	ldy     #$07
	lda     (sp),y
	ldy     #$01
	sta     (sp),y
	lda     #$02
	dey
	sta     (sp),y
	lda     #$01
	jsr     _spawn_bullet
;
; spawn_bullet(cx, cy, 2, -1);      // Up-right (but still moves down overall)
;
	jsr     decsp3
	ldy     #$08
	lda     (sp),y
	ldy     #$02
	sta     (sp),y
	ldy     #$07
	lda     (sp),y
	ldy     #$01
	sta     (sp),y
	lda     #$02
	dey
	sta     (sp),y
	lda     #$FF
	jsr     _spawn_bullet
;
; spawn_bullet(cx, cy, -2, 1);      // Down-left
;
	jsr     decsp3
	ldy     #$08
	lda     (sp),y
	ldy     #$02
	sta     (sp),y
	ldy     #$07
	lda     (sp),y
	ldy     #$01
	sta     (sp),y
	lda     #$FE
	dey
	sta     (sp),y
	lda     #$01
	jsr     _spawn_bullet
;
; spawn_bullet(cx, cy, -2, -1);     // Up-left
;
	jsr     decsp3
	ldy     #$08
	lda     (sp),y
	ldy     #$02
	sta     (sp),y
	ldy     #$07
	lda     (sp),y
	ldy     #$01
	sta     (sp),y
	lda     #$FE
	dey
	sta     (sp),y
	lda     #$FF
	jsr     _spawn_bullet
;
; spawn_bullet(cx, cy, 0, 1);       // Slow down
;
	jsr     decsp3
	ldy     #$08
	lda     (sp),y
	ldy     #$02
	sta     (sp),y
	ldy     #$07
	lda     (sp),y
	ldy     #$01
	sta     (sp),y
	lda     #$00
	dey
	sta     (sp),y
	lda     #$01
	jsr     _spawn_bullet
;
; break;
;
	jmp     incsp6
;
; if ((bullet_timer & 0x0F) == 0) {
;
L0810:	lda     _bullet_timer
	and     #$0F
	beq     L0822
;
; }
;
	jmp     incsp6
;
; angle_idx = pattern_phase & 0x07;
;
L0822:	lda     _pattern_phase
	and     #$07
	ldy     #$00
	sta     (sp),y
;
; dx = sin_table[angle_idx];
;
	lda     #<(_sin_table)
	ldx     #>(_sin_table)
	clc
	adc     (sp),y
	bcc     L0811
	inx
L0811:	jsr     ldaidx
	ldy     #$02
	sta     (sp),y
;
; spawn_bullet(cx - 16, cy, dx, 1);
;
	jsr     decsp3
	ldy     #$08
	lda     (sp),y
	sec
	sbc     #$10
	ldy     #$02
	sta     (sp),y
	ldy     #$07
	lda     (sp),y
	ldy     #$01
	sta     (sp),y
	ldy     #$05
	lda     (sp),y
	ldy     #$00
	sta     (sp),y
	lda     #$01
	jsr     _spawn_bullet
;
; dx = sin_table[(angle_idx + 4) & 0x07];
;
	ldy     #$00
	lda     (sp),y
	clc
	adc     #$04
	and     #$07
	clc
	adc     #<(_sin_table)
	tay
	lda     #$00
	adc     #>(_sin_table)
	tax
	tya
	ldy     #$00
	jsr     ldaidx
	ldy     #$02
	sta     (sp),y
;
; spawn_bullet(cx + 16, cy, dx, 1);
;
	jsr     decsp3
	ldy     #$08
	lda     (sp),y
	clc
	adc     #$10
	ldy     #$02
	sta     (sp),y
	ldy     #$07
	lda     (sp),y
	ldy     #$01
	sta     (sp),y
	ldy     #$05
	lda     (sp),y
	ldy     #$00
	sta     (sp),y
	lda     #$01
	jsr     _spawn_bullet
;
; ++pattern_phase;
;
	inc     _pattern_phase
;
; break;
;
	jmp     incsp6
;
; if ((bullet_timer & 0x3F) == 0) {
;
L0812:	lda     _bullet_timer
	and     #$3F
	beq     L0823
;
; }
;
	jmp     incsp6
;
; for (i = 0; i < 8; ++i) {
;
L0823:	dey
L0802:	sta     (sp),y
	cmp     #$08
	bcs     L0815
;
; angle_idx = (i + pattern_phase) & 0x07;
;
	lda     (sp),y
	clc
	adc     _pattern_phase
	and     #$07
	ldy     #$00
	sta     (sp),y
;
; dx = cos_table[angle_idx];
;
	lda     #<(_cos_table)
	ldx     #>(_cos_table)
	clc
	adc     (sp),y
	bcc     L0813
	inx
L0813:	jsr     ldaidx
	ldy     #$02
	sta     (sp),y
;
; dy = (sin_table[angle_idx] >> 1) + 1;  // Mostly downward
;
	lda     #<(_sin_table)
	ldx     #>(_sin_table)
	ldy     #$00
	clc
	adc     (sp),y
	bcc     L0814
	inx
L0814:	jsr     ldaidx
	jsr     asrax1
	clc
	adc     #$01
	cmp     #$80
	iny
	sta     (sp),y
;
; spawn_bullet(cx, cy, dx, dy);
;
	jsr     decsp3
	ldy     #$08
	lda     (sp),y
	ldy     #$02
	sta     (sp),y
	ldy     #$07
	lda     (sp),y
	ldy     #$01
	sta     (sp),y
	ldy     #$05
	lda     (sp),y
	ldy     #$00
	sta     (sp),y
	ldy     #$04
	lda     (sp),y
	jsr     _spawn_bullet
;
; for (i = 0; i < 8; ++i) {
;
	ldy     #$03
	clc
	lda     #$01
	adc     (sp),y
	jmp     L0802
;
; pattern_phase += 1;
;
L0815:	inc     _pattern_phase
;
; break;
;
	jmp     incsp6
;
; if ((bullet_timer & 0x0B) == 0) {  // Prime-ish interval
;
L0816:	lda     _bullet_timer
	and     #$0B
	beq     L0824
;
; }
;
	jmp     incsp6
;
; angle_idx = (pattern_phase * 5) & 0x07;  // Golden angle approx
;
L0824:	tax
	lda     _pattern_phase
	jsr     mulax5
	and     #$07
	ldy     #$00
	sta     (sp),y
;
; dx = cos_table[angle_idx];
;
	lda     #<(_cos_table)
	ldx     #>(_cos_table)
	clc
	adc     (sp),y
	bcc     L0817
	inx
L0817:	jsr     ldaidx
	ldy     #$02
	sta     (sp),y
;
; dy = 1;
;
	lda     #$01
	dey
	sta     (sp),y
;
; spawn_bullet(cx, cy, dx, dy);
;
	jsr     decsp3
	ldy     #$08
	lda     (sp),y
	ldy     #$02
	sta     (sp),y
	ldy     #$07
	lda     (sp),y
	ldy     #$01
	sta     (sp),y
	ldy     #$05
	lda     (sp),y
	ldy     #$00
	sta     (sp),y
	ldy     #$04
	lda     (sp),y
	jsr     _spawn_bullet
;
; ++pattern_phase;
;
	inc     _pattern_phase
;
; break;
;
	jmp     incsp6
;
; if ((bullet_timer & 0x1F) == 0) {
;
L0818:	lda     _bullet_timer
	and     #$1F
	beq     L0825
;
; }
;
	jmp     incsp6
;
; spawn_bullet(cx, cy, 0, 2);
;
L0825:	jsr     decsp3
	ldy     #$08
	lda     (sp),y
	ldy     #$02
	sta     (sp),y
	ldy     #$07
	lda     (sp),y
	ldy     #$01
	sta     (sp),y
	lda     #$00
	dey
	sta     (sp),y
	lda     #$02
	jsr     _spawn_bullet
;
; spawn_bullet(cx, cy, 0, 1);
;
	jsr     decsp3
	ldy     #$08
	lda     (sp),y
	ldy     #$02
	sta     (sp),y
	ldy     #$07
	lda     (sp),y
	ldy     #$01
	sta     (sp),y
	lda     #$00
	dey
	sta     (sp),y
	lda     #$01
	jsr     _spawn_bullet
;
; if (pattern_phase & 1) {
;
	lda     _pattern_phase
	and     #$01
	beq     L0295
;
; spawn_bullet(cx, cy, 2, 1);
;
	jsr     decsp3
	ldy     #$08
	lda     (sp),y
	ldy     #$02
	sta     (sp),y
	ldy     #$07
	lda     (sp),y
	ldy     #$01
	sta     (sp),y
	lda     #$02
	dey
	sta     (sp),y
	lda     #$01
	jsr     _spawn_bullet
;
; spawn_bullet(cx, cy, -2, 1);
;
	jsr     decsp3
	ldy     #$08
	lda     (sp),y
	ldy     #$02
	sta     (sp),y
	ldy     #$07
	lda     (sp),y
	ldy     #$01
	sta     (sp),y
	lda     #$FE
;
; } else {
;
	jmp     L081B
;
; spawn_bullet(cx, cy, 1, 1);
;
L0295:	jsr     decsp3
	ldy     #$08
	lda     (sp),y
	ldy     #$02
	sta     (sp),y
	ldy     #$07
	lda     (sp),y
	ldy     #$01
	sta     (sp),y
	tya
	dey
	sta     (sp),y
	jsr     _spawn_bullet
;
; spawn_bullet(cx, cy, -1, 1);
;
	jsr     decsp3
	ldy     #$08
	lda     (sp),y
	ldy     #$02
	sta     (sp),y
	ldy     #$07
	lda     (sp),y
	ldy     #$01
	sta     (sp),y
	lda     #$FF
L081B:	dey
	sta     (sp),y
	lda     #$01
	jsr     _spawn_bullet
;
; ++pattern_phase;
;
	inc     _pattern_phase
;
; }
;
	jmp     incsp6

.endproc

; ---------------------------------------------------------------
; void __near__ update_bullets (void)
; ---------------------------------------------------------------

.segment	"CODE"

.proc	_update_bullets: near

.segment	"CODE"

;
; for (i = 0; i < MAX_BULLETS; ++i) {
;
	jsr     decsp3
	lda     #$00
	ldy     #$02
L0826:	sta     (sp),y
	cmp     #$10
	bcc     L0828
;
; }
;
	jmp     incsp3
;
; if (bullet_on[i]) {
;
L0828:	lda     (sp),y
	tay
	lda     _bullet_on,y
	beq     L02B0
;
; nx = bullet_x[i] + bullet_dx[i];
;
	ldy     #$02
	lda     (sp),y
	tay
	lda     _bullet_x,y
	jsr     pusha0
	lda     #<(_bullet_dx)
	ldx     #>(_bullet_dx)
	ldy     #$04
	clc
	adc     (sp),y
	bcc     L02BF
	inx
L02BF:	ldy     #$00
	jsr     ldaidx
	jsr     tosaddax
	ldy     #$01
	sta     (sp),y
;
; ny = bullet_y[i] + bullet_dy[i];
;
	iny
	lda     (sp),y
	tay
	lda     _bullet_y,y
	jsr     pusha0
	lda     #<(_bullet_dy)
	ldx     #>(_bullet_dy)
	ldy     #$04
	clc
	adc     (sp),y
	bcc     L02C5
	inx
L02C5:	ldy     #$00
	jsr     ldaidx
	jsr     tosaddax
	ldy     #$00
	sta     (sp),y
;
; if (nx < 8 || nx > 248 || ny > 240) {
;
	iny
	lda     (sp),y
	cmp     #$08
	bcc     L0827
	cmp     #$F9
	bcs     L0827
	dey
	lda     (sp),y
	cmp     #$F1
	bcc     L02C6
;
; bullet_on[i] = 0;
;
L0827:	ldy     #$02
	lda     (sp),y
	tay
	lda     #$00
	sta     _bullet_on,y
;
; } else {
;
	jmp     L02B0
;
; bullet_x[i] = nx;
;
L02C6:	ldy     #$02
	lda     (sp),y
	tax
	dey
	lda     (sp),y
	sta     _bullet_x,x
;
; bullet_y[i] = ny;
;
	iny
	lda     (sp),y
	tax
	ldy     #$00
	lda     (sp),y
	sta     _bullet_y,x
;
; for (i = 0; i < MAX_BULLETS; ++i) {
;
L02B0:	ldy     #$02
	clc
	lda     #$01
	adc     (sp),y
	jmp     L0826

.endproc

; ---------------------------------------------------------------
; void __near__ check_bullet_collisions (void)
; ---------------------------------------------------------------

.segment	"CODE"

.proc	_check_bullet_collisions: near

.segment	"CODE"

;
; if (player_inv > 0) return;
;
	jsr     decsp3
	lda     _player_inv
	bne     L02DA
;
; for (i = 0; i < MAX_BULLETS; ++i) {
;
	ldy     #$02
L0829:	sta     (sp),y
	cmp     #$10
	bcs     L02DA
;
; if (bullet_on[i]) {
;
	lda     (sp),y
	tay
	lda     _bullet_on,y
	beq     L02DB
;
; dx = abs_diff(player_x + 8, bullet_x[i]);
;
	lda     _player_x
	clc
	adc     #$08
	jsr     pusha
	ldy     #$03
	lda     (sp),y
	tay
	lda     _bullet_x,y
	jsr     _abs_diff
	ldy     #$01
	sta     (sp),y
;
; dy = abs_diff(player_y + 8, bullet_y[i]);
;
	lda     _player_y
	clc
	adc     #$08
	jsr     pusha
	ldy     #$03
	lda     (sp),y
	tay
	lda     _bullet_y,y
	jsr     _abs_diff
	ldy     #$00
	sta     (sp),y
;
; if (dx < 10 && dy < 10) {
;
	iny
	lda     (sp),y
	cmp     #$0A
	bcs     L02DB
	dey
	lda     (sp),y
	cmp     #$0A
	bcs     L02DB
;
; --player_hp;
;
	dec     _player_hp
;
; player_inv = 60;
;
	lda     #$3C
	sta     _player_inv
;
; bullet_on[i] = 0;
;
	ldy     #$02
	lda     (sp),y
	tay
	lda     #$00
	sta     _bullet_on,y
;
; if (player_hp == 0) {
;
	lda     _player_hp
	bne     L02DB
;
; game_state = STATE_GAMEOVER;
;
	lda     #$03
	sta     _game_state
;
; for (i = 0; i < MAX_BULLETS; ++i) {
;
L02DB:	ldy     #$02
	clc
	lda     #$01
	adc     (sp),y
	jmp     L0829
;
; }
;
L02DA:	jmp     incsp3

.endproc

; ---------------------------------------------------------------
; void __near__ init_game (void)
; ---------------------------------------------------------------

.segment	"CODE"

.proc	_init_game: near

.segment	"CODE"

;
; player_x = PLAYER_START_X;
;
	jsr     decsp1
	lda     #$78
	sta     _player_x
;
; player_y = PLAYER_START_Y;
;
	lda     #$C8
	sta     _player_y
;
; player_hp = PLAYER_MAX_HP;
;
	lda     #$05
	sta     _player_hp
;
; player_inv = 0;
;
	lda     #$00
	sta     _player_inv
;
; enemy_on = 0;
;
	sta     _enemy_on
;
; position = 2;
;
	lda     #$02
	sta     _position
;
; lap_count = 0;
;
	lda     #$00
	sta     _lap_count
;
; score = 0;
;
	sta     _score
	sta     _score+1
;
; distance = 0;
;
	sta     _distance
	sta     _distance+1
;
; scroll_y = 0;
;
	sta     _scroll_y
;
; for (i = 0; i < 4; ++i) {
;
	tay
L082C:	sta     (sp),y
	cmp     #$04
	bcs     L082E
;
; obs_on[i] = 0;
;
	lda     (sp),y
	tay
	lda     #$00
	sta     _obs_on,y
;
; for (i = 0; i < 4; ++i) {
;
	tay
	clc
	lda     #$01
	adc     (sp),y
	jmp     L082C
;
; for (i = 0; i < MAX_BULLETS; ++i) {
;
L082E:	tya
L082D:	sta     (sp),y
	cmp     #$10
	bcs     L082F
;
; bullet_on[i] = 0;
;
	lda     (sp),y
	tay
	lda     #$00
	sta     _bullet_on,y
;
; for (i = 0; i < MAX_BULLETS; ++i) {
;
	tay
	clc
	lda     #$01
	adc     (sp),y
	jmp     L082D
;
; bullet_timer = 0;
;
L082F:	tya
	sta     _bullet_timer
;
; pattern_phase = 0;
;
	sta     _pattern_phase
;
; pattern_type = 0;
;
	sta     _pattern_type
;
; draw_road();
;
	jsr     _draw_road
;
; prepare_enemy();  // Start with warning marker
;
	jsr     _prepare_enemy
;
; }
;
	jmp     incsp1

.endproc

; ---------------------------------------------------------------
; void __near__ update_player (void)
; ---------------------------------------------------------------

.segment	"CODE"

.proc	_update_player: near

.segment	"CODE"

;
; if (pad_now & BTN_LEFT) {
;
	lda     _pad_now
	and     #$02
	beq     L0830
;
; if (player_x > ROAD_LEFT) player_x -= PLAYER_SPEED;
;
	lda     _player_x
	cmp     #$41
	bcc     L0830
	sec
	sbc     #$02
	sta     _player_x
;
; if (pad_now & BTN_RIGHT) {
;
L0830:	lda     _pad_now
	and     #$01
	beq     L0831
;
; if (player_x < ROAD_RIGHT - 16) player_x += PLAYER_SPEED;
;
	lda     _player_x
	cmp     #$B0
	bcs     L0831
	lda     #$02
	clc
	adc     _player_x
	sta     _player_x
;
; if (pad_now & BTN_UP) {
;
L0831:	lda     _pad_now
	and     #$08
	beq     L0832
;
; if (player_y > 32) player_y -= PLAYER_SPEED;
;
	lda     _player_y
	cmp     #$21
	bcc     L0832
	sec
	sbc     #$02
	sta     _player_y
;
; if (pad_now & BTN_DOWN) {
;
L0832:	lda     _pad_now
	and     #$04
	beq     L0833
;
; if (player_y < SCREEN_HEIGHT - 32) player_y += PLAYER_SPEED;
;
	lda     _player_y
	cmp     #$D0
	bcs     L0833
	lda     #$02
	clc
	adc     _player_y
	sta     _player_y
;
; if (player_x <= ROAD_LEFT + 8 && player_hp < PLAYER_MAX_HP) {
;
L0833:	lda     _player_x
	cmp     #$49
	bcs     L0836
	lda     _player_hp
	cmp     #$05
	bcs     L0836
;
; if ((frame_count & 0x3F) == 0) {
;
	lda     _frame_count
	and     #$3F
	bne     L0836
;
; game_state = STATE_PITSTOP;
;
	lda     #$02
	sta     _game_state
;
; pit_timer = 0;
;
	lda     #$00
	sta     _pit_timer
;
; if (player_inv > 0) --player_inv;
;
L0836:	lda     _player_inv
	beq     L035C
	dec     _player_inv
;
; }
;
L035C:	rts

.endproc

; ---------------------------------------------------------------
; void __near__ update_enemy (void)
; ---------------------------------------------------------------

.segment	"CODE"

.proc	_update_enemy: near

.segment	"CODE"

;
; if (!enemy_on && enemy_warn_timer > 0) {
;
	lda     _enemy_on
	bne     L0360
	lda     _enemy_warn_timer
	beq     L0360
;
; --enemy_warn_timer;
;
	dec     _enemy_warn_timer
;
; if (enemy_warn_timer == 0) {
;
	beq     L083D
;
; }
;
	rts
;
; spawn_enemy();
;
L083D:	jmp     _spawn_enemy
;
; if (!enemy_on) {
;
L0360:	lda     _enemy_on
;
; prepare_enemy();
;
	jeq     _prepare_enemy
;
; enemy_y += enemy_speed;
;
	lda     _enemy_speed
	clc
	adc     _enemy_y
	sta     _enemy_y
;
; if ((frame_count & 0x07) == 0) {
;
	lda     _frame_count
	and     #$07
	bne     L083C
;
; if (enemy_x + 8 < player_x && enemy_x < ROAD_RIGHT - 24) {
;
	tax
	lda     _enemy_x
	clc
	adc     #$08
	bcc     L0373
	inx
L0373:	cmp     _player_x
	txa
	sbc     #$00
	bcs     L0374
	lda     _enemy_x
	cmp     #$A8
	bcc     L0839
L0374:	jmp     L083A
;
; enemy_x += 1;  // Move right to block
;
L0839:	inc     _enemy_x
;
; } else if (enemy_x > player_x + 8 && enemy_x > ROAD_LEFT + 8) {
;
	jmp     L083C
L083A:	lda     _enemy_x
	jsr     pusha0
	lda     _player_x
	clc
	adc     #$08
	bcc     L037B
	ldx     #$01
L037B:	jsr     tosicmp
	bcc     L083C
	beq     L083C
	lda     _enemy_x
	cmp     #$49
	bcc     L083C
;
; enemy_x -= 1;  // Move left to block
;
	dec     _enemy_x
;
; if (enemy_y > SCREEN_HEIGHT) {
;
L083C:	lda     _enemy_y
	cmp     #$F1
	bcc     L0389
;
; enemy_on = 0;
;
	lda     #$00
	sta     _enemy_on
;
; score += 50;
;
	lda     #$32
	clc
	adc     _score
	sta     _score
	bcc     L0386
	inc     _score+1
;
; position = 1;
;
L0386:	lda     #$01
	sta     _position
;
; if (lap_count < 3) {
;
	lda     _lap_count
	cmp     #$03
	bcs     L0389
;
; prepare_enemy();  // Show warning for next enemy
;
	jsr     _prepare_enemy
;
; position = 2;
;
	lda     #$02
	sta     _position
;
; }
;
L0389:	rts

.endproc

; ---------------------------------------------------------------
; void __near__ update_obstacles (void)
; ---------------------------------------------------------------

.segment	"CODE"

.proc	_update_obstacles: near

.segment	"CODE"

;
; for (i = 0; i < 4; ++i) {
;
	jsr     decsp1
	lda     #$00
	tay
L083E:	sta     (sp),y
	cmp     #$04
	bcs     L0390
;
; if (obs_on[i]) {
;
	lda     (sp),y
	tay
	lda     _obs_on,y
	beq     L0391
;
; obs_y[i] += SCROLL_SPEED;
;
	lda     #<(_obs_y)
	ldx     #>(_obs_y)
	ldy     #$00
	clc
	adc     (sp),y
	bcc     L039D
	inx
L039D:	sta     ptr1
	stx     ptr1+1
	lda     (ptr1),y
	clc
	adc     #$02
	sta     (ptr1),y
;
; if (obs_y[i] > SCREEN_HEIGHT) {
;
	lda     (sp),y
	tay
	lda     _obs_y,y
	cmp     #$F1
	bcc     L0391
;
; obs_on[i] = 0;
;
	ldy     #$00
	lda     (sp),y
	tay
	lda     #$00
	sta     _obs_on,y
;
; for (i = 0; i < 4; ++i) {
;
L0391:	ldy     #$00
	clc
	lda     #$01
	adc     (sp),y
	jmp     L083E
;
; }
;
L0390:	jmp     incsp1

.endproc

; ---------------------------------------------------------------
; void __near__ check_collisions (void)
; ---------------------------------------------------------------

.segment	"CODE"

.proc	_check_collisions: near

.segment	"CODE"

;
; if (player_inv > 0) return;
;
	jsr     decsp3
	lda     _player_inv
	beq     L0846
;
; }
;
	jmp     incsp3
;
; if (enemy_on) {
;
L0846:	lda     _enemy_on
	beq     L0843
;
; dx = abs_diff(player_x, enemy_x);
;
	lda     _player_x
	jsr     pusha
	lda     _enemy_x
	jsr     _abs_diff
	ldy     #$01
	sta     (sp),y
;
; dy = abs_diff(player_y, enemy_y);
;
	lda     _player_y
	jsr     pusha
	lda     _enemy_y
	jsr     _abs_diff
	ldy     #$00
	sta     (sp),y
;
; if (dx < 14 && dy < 14) {
;
	iny
	lda     (sp),y
	cmp     #$0E
	bcs     L0842
	dey
	lda     (sp),y
	cmp     #$0E
	bcs     L0842
;
; --player_hp;
;
	dec     _player_hp
;
; player_inv = 60;
;
	lda     #$3C
	sta     _player_inv
;
; if (player_hp == 0) {
;
	lda     _player_hp
	bne     L0842
;
; game_state = STATE_GAMEOVER;
;
	lda     #$03
	sta     _game_state
;
; for (i = 0; i < 4; ++i) {
;
L0842:	lda     #$00
L0843:	ldy     #$02
L083F:	sta     (sp),y
	cmp     #$04
	bcs     L03C0
;
; if (obs_on[i]) {
;
	lda     (sp),y
	tay
	lda     _obs_on,y
	beq     L03C1
;
; dx = abs_diff(player_x, obs_x[i]);
;
	lda     _player_x
	jsr     pusha
	ldy     #$03
	lda     (sp),y
	tay
	lda     _obs_x,y
	jsr     _abs_diff
	ldy     #$01
	sta     (sp),y
;
; dy = abs_diff(player_y, obs_y[i]);
;
	lda     _player_y
	jsr     pusha
	ldy     #$03
	lda     (sp),y
	tay
	lda     _obs_y,y
	jsr     _abs_diff
	ldy     #$00
	sta     (sp),y
;
; if (dx < 12 && dy < 12) {
;
	iny
	lda     (sp),y
	cmp     #$0C
	bcs     L03C1
	dey
	lda     (sp),y
	cmp     #$0C
	bcs     L03C1
;
; --player_hp;
;
	dec     _player_hp
;
; player_inv = 60;
;
	lda     #$3C
	sta     _player_inv
;
; obs_on[i] = 0;
;
	ldy     #$02
	lda     (sp),y
	tay
	lda     #$00
	sta     _obs_on,y
;
; if (player_hp == 0) {
;
	lda     _player_hp
	bne     L03C1
;
; game_state = STATE_GAMEOVER;
;
	lda     #$03
	sta     _game_state
;
; for (i = 0; i < 4; ++i) {
;
L03C1:	ldy     #$02
	clc
	lda     #$01
	adc     (sp),y
	jmp     L083F
;
; }
;
L03C0:	jmp     incsp3

.endproc

; ---------------------------------------------------------------
; void __near__ update_game (void)
; ---------------------------------------------------------------

.segment	"CODE"

.proc	_update_game: near

.segment	"CODE"

;
; update_player();
;
	jsr     _update_player
;
; update_enemy();
;
	jsr     _update_enemy
;
; update_obstacles();
;
	jsr     _update_obstacles
;
; check_collisions();
;
	jsr     _check_collisions
;
; spawn_danmaku();
;
	jsr     _spawn_danmaku
;
; update_bullets();
;
	jsr     _update_bullets
;
; check_bullet_collisions();
;
	jsr     _check_bullet_collisions
;
; ++distance;
;
	inc     _distance
	bne     L03EF
	inc     _distance+1
;
; if (distance >= 1000) {
;
L03EF:	lda     _distance
	cmp     #$E8
	lda     _distance+1
	sbc     #$03
	bcc     L084D
;
; distance = 0;
;
	lda     #$00
	sta     _distance
	sta     _distance+1
;
; ++lap_count;
;
	inc     _lap_count
;
; score += 100;
;
	lda     #$64
	clc
	adc     _score
	sta     _score
	bcc     L03F7
	inc     _score+1
;
; if (position == 1) score += 100;
;
L03F7:	lda     _position
	cmp     #$01
	bne     L0847
	lda     #$64
	clc
	adc     _score
	sta     _score
	bcc     L0847
	inc     _score+1
;
; if (lap_count >= 3 && position == 1) {
;
L0847:	lda     _lap_count
	cmp     #$03
	bcc     L084D
	lda     _position
	cmp     #$01
	bne     L084D
;
; game_state = STATE_WIN;
;
	lda     #$04
	sta     _game_state
;
; init_win_animation();
;
	jsr     _init_win_animation
;
; if ((frame_count & 0x3F) == 0) {
;
L084D:	lda     _frame_count
	and     #$3F
	bne     L084E
;
; spawn_obstacle();
;
	jsr     _spawn_obstacle
;
; scroll_y += SCROLL_SPEED;
;
L084E:	lda     #$02
	clc
	adc     _scroll_y
	sta     _scroll_y
;
; }
;
	rts

.endproc

; ---------------------------------------------------------------
; void __near__ draw_game (void)
; ---------------------------------------------------------------

.segment	"CODE"

.proc	_draw_game: near

.segment	"CODE"

;
; unsigned char id = 0;
;
	lda     #$00
	jsr     pusha
;
; if (player_inv == 0 || (frame_count & 4)) {
;
	jsr     decsp1
	lda     _player_inv
	beq     L0856
	lda     _frame_count
	and     #$04
	beq     L040D
;
; id = set_car(id, player_x, player_y, SPR_CAR, 0);
;
L0856:	jsr     decsp4
	ldy     #$05
	lda     (sp),y
	ldy     #$03
	sta     (sp),y
	lda     _player_x
	dey
	sta     (sp),y
	lda     _player_y
	dey
	sta     (sp),y
	lda     #$00
	dey
	sta     (sp),y
	jsr     _set_car
	ldy     #$01
	sta     (sp),y
;
; if (!enemy_on && enemy_warn_timer > 0 && (frame_count & 8)) {
;
L040D:	lda     _enemy_on
	bne     L0418
	lda     _enemy_warn_timer
	beq     L0418
	lda     _frame_count
	and     #$08
	beq     L0418
;
; id = set_sprite(id, enemy_next_x + 4, 8, 0x0A, 1 | 0x80);  // Arrow, flipped vertically
;
	jsr     decsp4
	ldy     #$05
	lda     (sp),y
	ldy     #$03
	sta     (sp),y
	lda     _enemy_next_x
	clc
	adc     #$04
	dey
	sta     (sp),y
	lda     #$08
	dey
	sta     (sp),y
	lda     #$0A
	dey
	sta     (sp),y
	lda     #$81
	jsr     _set_sprite
	ldy     #$01
	sta     (sp),y
;
; id = set_sprite(id, enemy_next_x + 4, 16, 0x0A, 1 | 0x80);
;
	jsr     decsp4
	ldy     #$05
	lda     (sp),y
	ldy     #$03
	sta     (sp),y
	lda     _enemy_next_x
	clc
	adc     #$04
	dey
	sta     (sp),y
	lda     #$10
	dey
	sta     (sp),y
	lda     #$0A
	dey
	sta     (sp),y
	lda     #$81
	jsr     _set_sprite
	ldy     #$01
	sta     (sp),y
;
; if (enemy_on) {
;
L0418:	lda     _enemy_on
	beq     L0866
;
; id = set_car(id, enemy_x, enemy_y, SPR_CAR + 4, 1);
;
	jsr     decsp4
	ldy     #$05
	lda     (sp),y
	ldy     #$03
	sta     (sp),y
	lda     _enemy_x
	dey
	sta     (sp),y
	lda     _enemy_y
	dey
	sta     (sp),y
	lda     #$04
	dey
	sta     (sp),y
	lda     #$01
	jsr     _set_car
	ldy     #$01
	sta     (sp),y
;
; for (i = 0; i < 4; ++i) {
;
	lda     #$00
L0866:	tay
L0851:	sta     (sp),y
	cmp     #$04
	bcs     L085A
;
; if (obs_on[i]) {
;
	lda     (sp),y
	tay
	lda     _obs_on,y
	beq     L0438
;
; id = set_sprite(id, obs_x[i], obs_y[i], SPR_OBSTACLE, 2);
;
	jsr     decsp4
	ldy     #$05
	lda     (sp),y
	ldy     #$03
	sta     (sp),y
	iny
	lda     (sp),y
	tay
	lda     _obs_x,y
	ldy     #$02
	sta     (sp),y
	ldy     #$04
	lda     (sp),y
	tay
	lda     _obs_y,y
	ldy     #$01
	sta     (sp),y
	lda     #$08
	dey
	sta     (sp),y
	lda     #$02
	jsr     _set_sprite
	ldy     #$01
	sta     (sp),y
;
; for (i = 0; i < 4; ++i) {
;
L0438:	ldy     #$00
	clc
	lda     #$01
	adc     (sp),y
	jmp     L0851
;
; for (i = 0; i < MAX_BULLETS; ++i) {
;
L085A:	tya
L0852:	sta     (sp),y
	cmp     #$10
	bcs     L044E
;
; if (bullet_on[i] && id < 60) {  // Leave room for HUD
;
	lda     (sp),y
	tay
	lda     _bullet_on,y
	beq     L044F
	ldy     #$01
	lda     (sp),y
	cmp     #$3C
	bcs     L044F
;
; id = set_sprite(id, bullet_x[i], bullet_y[i], SPR_BULLET, 1);
;
	jsr     decsp4
	ldy     #$05
	lda     (sp),y
	ldy     #$03
	sta     (sp),y
	iny
	lda     (sp),y
	tay
	lda     _bullet_x,y
	ldy     #$02
	sta     (sp),y
	ldy     #$04
	lda     (sp),y
	tay
	lda     _bullet_y,y
	ldy     #$01
	sta     (sp),y
	lda     #$0B
	dey
	sta     (sp),y
	lda     #$01
	jsr     _set_sprite
	ldy     #$01
	sta     (sp),y
;
; for (i = 0; i < MAX_BULLETS; ++i) {
;
L044F:	ldy     #$00
	clc
	lda     #$01
	adc     (sp),y
	jmp     L0852
;
; id = set_sprite(id, 8, 8, SPR_LETTER + 15, 3);  // P
;
L044E:	jsr     decsp4
	ldy     #$05
	lda     (sp),y
	ldy     #$03
	sta     (sp),y
	lda     #$08
	dey
	sta     (sp),y
	dey
	sta     (sp),y
	lda     #$3F
	dey
	sta     (sp),y
	lda     #$03
	jsr     _set_sprite
	ldy     #$01
	sta     (sp),y
;
; id = set_sprite(id, 16, 8, SPR_DIGIT + position, 3);
;
	jsr     decsp4
	ldy     #$05
	lda     (sp),y
	ldy     #$03
	sta     (sp),y
	lda     #$10
	dey
	sta     (sp),y
	lda     #$08
	dey
	sta     (sp),y
	lda     _position
	clc
	adc     #$10
	dey
	sta     (sp),y
	lda     #$03
	jsr     _set_sprite
	ldy     #$01
	sta     (sp),y
;
; id = set_sprite(id, 8, 20, SPR_LETTER + 7, 3);  // H
;
	jsr     decsp4
	ldy     #$05
	lda     (sp),y
	ldy     #$03
	sta     (sp),y
	lda     #$08
	dey
	sta     (sp),y
	lda     #$14
	dey
	sta     (sp),y
	lda     #$37
	dey
	sta     (sp),y
	lda     #$03
	jsr     _set_sprite
	ldy     #$01
	sta     (sp),y
;
; id = set_sprite(id, 16, 20, SPR_DIGIT + player_hp, 3);
;
	jsr     decsp4
	ldy     #$05
	lda     (sp),y
	ldy     #$03
	sta     (sp),y
	lda     #$10
	dey
	sta     (sp),y
	lda     #$14
	dey
	sta     (sp),y
	lda     _player_hp
	clc
	adc     #$10
	dey
	sta     (sp),y
	lda     #$03
	jsr     _set_sprite
	ldy     #$01
	sta     (sp),y
;
; id = set_sprite(id, 100, 8, SPR_LETTER + 11, 3);  // L
;
	jsr     decsp4
	ldy     #$05
	lda     (sp),y
	ldy     #$03
	sta     (sp),y
	lda     #$64
	dey
	sta     (sp),y
	lda     #$08
	dey
	sta     (sp),y
	lda     #$3B
	dey
	sta     (sp),y
	lda     #$03
	jsr     _set_sprite
	ldy     #$01
	sta     (sp),y
;
; id = set_sprite(id, 108, 8, SPR_LETTER + 0, 3);   // A
;
	jsr     decsp4
	ldy     #$05
	lda     (sp),y
	ldy     #$03
	sta     (sp),y
	lda     #$6C
	dey
	sta     (sp),y
	lda     #$08
	dey
	sta     (sp),y
	lda     #$30
	dey
	sta     (sp),y
	lda     #$03
	jsr     _set_sprite
	ldy     #$01
	sta     (sp),y
;
; id = set_sprite(id, 116, 8, SPR_LETTER + 15, 3);  // P
;
	jsr     decsp4
	ldy     #$05
	lda     (sp),y
	ldy     #$03
	sta     (sp),y
	lda     #$74
	dey
	sta     (sp),y
	lda     #$08
	dey
	sta     (sp),y
	lda     #$3F
	dey
	sta     (sp),y
	lda     #$03
	jsr     _set_sprite
	ldy     #$01
	sta     (sp),y
;
; id = set_sprite(id, 128, 8, SPR_DIGIT + lap_count + 1, 3);  // Current lap
;
	jsr     decsp4
	ldy     #$05
	lda     (sp),y
	ldy     #$03
	sta     (sp),y
	lda     #$80
	dey
	sta     (sp),y
	lda     #$08
	dey
	sta     (sp),y
	lda     _lap_count
	clc
	adc     #$10
	bcc     L0855
	clc
L0855:	adc     #$01
	dey
	sta     (sp),y
	lda     #$03
	jsr     _set_sprite
	ldy     #$01
	sta     (sp),y
;
; id = set_sprite(id, 136, 8, SPR_SLASH, 3);        // "/"
;
	jsr     decsp4
	ldy     #$05
	lda     (sp),y
	ldy     #$03
	sta     (sp),y
	lda     #$88
	dey
	sta     (sp),y
	lda     #$08
	dey
	sta     (sp),y
	lda     #$05
	dey
	sta     (sp),y
	lda     #$03
	jsr     _set_sprite
	ldy     #$01
	sta     (sp),y
;
; id = set_sprite(id, 144, 8, SPR_DIGIT + 3, 3);    // 3 (total laps)
;
	jsr     decsp4
	ldy     #$05
	lda     (sp),y
	ldy     #$03
	sta     (sp),y
	lda     #$90
	dey
	sta     (sp),y
	lda     #$08
	dey
	sta     (sp),y
	lda     #$13
	dey
	sta     (sp),y
	lda     #$03
	jsr     _set_sprite
	ldy     #$01
	sta     (sp),y
;
; progress = (unsigned char)(distance / 10);
;
	jsr     decsp4
	lda     _distance
	ldx     _distance+1
	jsr     pushax
	lda     #$0A
	jsr     tosudiva0
	ldy     #$03
	sta     (sp),y
;
; if (progress > 100) progress = 100;
;
	cmp     #$65
	lda     #$00
	bcc     L085F
	lda     #$64
	sta     (sp),y
;
; for (bar_x = 0; bar_x < 8 && id < 58; ++bar_x) {
;
	lda     #$00
L085F:	dey
L0853:	sta     (sp),y
	cmp     #$08
	bcs     L04B8
	ldy     #$05
	lda     (sp),y
	cmp     #$3A
	bcs     L04B8
;
; id = set_sprite(id, 64 + bar_x * 10, 224, SPR_BAR_EMPTY, 3);
;
	jsr     decsp4
	ldy     #$09
	lda     (sp),y
	ldy     #$03
	sta     (sp),y
	ldy     #$06
	ldx     #$00
	lda     (sp),y
	jsr     mulax10
	clc
	adc     #$40
	ldy     #$02
	sta     (sp),y
	lda     #$E0
	dey
	sta     (sp),y
	lda     #$07
	dey
	sta     (sp),y
	lda     #$03
	jsr     _set_sprite
	ldy     #$05
	sta     (sp),y
;
; for (bar_x = 0; bar_x < 8 && id < 58; ++bar_x) {
;
	ldy     #$02
	clc
	lda     #$01
	adc     (sp),y
	jmp     L0853
;
; bar_filled = progress / 13;  // 0-7 segments
;
L04B8:	ldy     #$03
	lda     (sp),y
	jsr     pusha0
	lda     #$0D
	jsr     tosudiva0
	ldy     #$01
	sta     (sp),y
;
; for (bar_x = 0; bar_x < bar_filled && bar_x < 8 && id < 60; ++bar_x) {
;
	lda     #$00
	iny
L0854:	sta     (sp),y
	ldx     #$00
	lda     (sp),y
	dey
	cmp     (sp),y
	bcs     L04CC
	iny
	lda     (sp),y
	cmp     #$08
	bcs     L04CC
	ldy     #$05
	lda     (sp),y
	cmp     #$3C
	bcs     L04CC
;
; id = set_sprite(id, 64 + bar_x * 10, 224, SPR_BAR_FILL, 3);
;
	jsr     decsp4
	ldy     #$09
	lda     (sp),y
	ldy     #$03
	sta     (sp),y
	ldy     #$06
	lda     (sp),y
	jsr     mulax10
	clc
	adc     #$40
	ldy     #$02
	sta     (sp),y
	lda     #$E0
	dey
	sta     (sp),y
	lda     #$06
	dey
	sta     (sp),y
	lda     #$03
	jsr     _set_sprite
	ldy     #$05
	sta     (sp),y
;
; for (bar_x = 0; bar_x < bar_filled && bar_x < 8 && id < 60; ++bar_x) {
;
	ldy     #$02
	clc
	lda     #$01
	adc     (sp),y
	jmp     L0854
;
; car_pos = 64 + ((progress * 70) / 100);
;
L04CC:	ldy     #$03
	lda     (sp),y
	jsr     pusha0
	lda     #$46
	jsr     tosumula0
	jsr     pushax
	lda     #$64
	jsr     tosudiva0
	clc
	adc     #$40
	ldy     #$00
	sta     (sp),y
;
; id = set_sprite(id, car_pos, 216, SPR_CAR_ICON, 0);
;
	jsr     decsp4
	ldy     #$09
	lda     (sp),y
	ldy     #$03
	sta     (sp),y
	iny
	lda     (sp),y
	ldy     #$02
	sta     (sp),y
	lda     #$D8
	dey
	sta     (sp),y
	lda     #$08
	dey
	sta     (sp),y
	tya
	jsr     _set_sprite
	ldy     #$05
	sta     (sp),y
;
; id = set_sprite(id, 152, 224, SPR_LETTER + 6, 3);  // G
;
	jsr     decsp4
	ldy     #$09
	lda     (sp),y
	ldy     #$03
	sta     (sp),y
	lda     #$98
	dey
	sta     (sp),y
	lda     #$E0
	dey
	sta     (sp),y
	lda     #$36
	dey
	sta     (sp),y
	lda     #$03
	jsr     _set_sprite
	ldy     #$05
	sta     (sp),y
;
; id = set_sprite(id, 160, 224, SPR_LETTER + 14, 3); // O
;
	jsr     decsp4
	ldy     #$09
	lda     (sp),y
	ldy     #$03
	sta     (sp),y
	lda     #$A0
	dey
	sta     (sp),y
	lda     #$E0
	dey
	sta     (sp),y
	lda     #$3E
	dey
	sta     (sp),y
	lda     #$03
	jsr     _set_sprite
	ldy     #$05
	sta     (sp),y
;
; id = set_sprite(id, 168, 224, SPR_LETTER + 0, 3);  // A
;
	jsr     decsp4
	ldy     #$09
	lda     (sp),y
	ldy     #$03
	sta     (sp),y
	lda     #$A8
	dey
	sta     (sp),y
	lda     #$E0
	dey
	sta     (sp),y
	lda     #$30
	dey
	sta     (sp),y
	lda     #$03
	jsr     _set_sprite
	ldy     #$05
	sta     (sp),y
;
; id = set_sprite(id, 176, 224, SPR_LETTER + 11, 3); // L
;
	jsr     decsp4
	ldy     #$09
	lda     (sp),y
	ldy     #$03
	sta     (sp),y
	lda     #$B0
	dey
	sta     (sp),y
	lda     #$E0
	dey
	sta     (sp),y
	lda     #$3B
	dey
	sta     (sp),y
	lda     #$03
	jsr     _set_sprite
	ldy     #$05
	sta     (sp),y
;
; }
;
	jsr     incsp4
;
; while (id < 64) {
;
	jmp     L0507
;
; OAM[id * 4] = 0xFF;
;
L0865:	lda     (sp),y
	jsr     shlax2
	inx
	inx
	sta     ptr1
	stx     ptr1+1
	lda     #$FF
	dey
	sta     (ptr1),y
;
; ++id;
;
	iny
	clc
	tya
	adc     (sp),y
	sta     (sp),y
;
; while (id < 64) {
;
L0507:	ldy     #$01
	ldx     #$00
	lda     (sp),y
	cmp     #$40
	bcc     L0865
;
; }
;
	jmp     incsp2

.endproc

; ---------------------------------------------------------------
; void __near__ draw_title (void)
; ---------------------------------------------------------------

.segment	"CODE"

.proc	_draw_title: near

.segment	"CODE"

;
; unsigned char id = 0;
;
	lda     #$00
	jsr     pusha
;
; unsigned char x = 100, y = 100;
;
	lda     #$64
	jsr     pusha
	jsr     pusha
;
; id = set_sprite(id, x,      y, SPR_LETTER + 17, 0);  // R
;
	jsr     decsp4
	ldy     #$06
	lda     (sp),y
	ldy     #$03
	sta     (sp),y
	ldy     #$05
	lda     (sp),y
	ldy     #$02
	sta     (sp),y
	ldy     #$04
	lda     (sp),y
	ldy     #$01
	sta     (sp),y
	lda     #$41
	dey
	sta     (sp),y
	tya
	jsr     _set_sprite
	ldy     #$02
	sta     (sp),y
;
; id = set_sprite(id, x + 8,  y, SPR_LETTER + 0,  0);  // A
;
	jsr     decsp4
	ldy     #$06
	lda     (sp),y
	ldy     #$03
	sta     (sp),y
	ldy     #$05
	lda     (sp),y
	clc
	adc     #$08
	ldy     #$02
	sta     (sp),y
	ldy     #$04
	lda     (sp),y
	ldy     #$01
	sta     (sp),y
	lda     #$30
	dey
	sta     (sp),y
	tya
	jsr     _set_sprite
	ldy     #$02
	sta     (sp),y
;
; id = set_sprite(id, x + 16, y, SPR_LETTER + 2,  0);  // C
;
	jsr     decsp4
	ldy     #$06
	lda     (sp),y
	ldy     #$03
	sta     (sp),y
	ldy     #$05
	lda     (sp),y
	clc
	adc     #$10
	ldy     #$02
	sta     (sp),y
	ldy     #$04
	lda     (sp),y
	ldy     #$01
	sta     (sp),y
	lda     #$32
	dey
	sta     (sp),y
	tya
	jsr     _set_sprite
	ldy     #$02
	sta     (sp),y
;
; id = set_sprite(id, x + 24, y, SPR_LETTER + 4,  0);  // E
;
	jsr     decsp4
	ldy     #$06
	lda     (sp),y
	ldy     #$03
	sta     (sp),y
	ldy     #$05
	lda     (sp),y
	clc
	adc     #$18
	ldy     #$02
	sta     (sp),y
	ldy     #$04
	lda     (sp),y
	ldy     #$01
	sta     (sp),y
	lda     #$34
	dey
	sta     (sp),y
	tya
	jsr     _set_sprite
	ldy     #$02
	sta     (sp),y
;
; if (frame_count & 0x20) {
;
	lda     _frame_count
	ldx     #$00
	and     #$20
	beq     L086B
;
; id = set_car(id, x + 4, y + 24, SPR_CAR, 0);
;
	jsr     decsp4
	ldy     #$06
	lda     (sp),y
	ldy     #$03
	sta     (sp),y
	ldy     #$05
	lda     (sp),y
	clc
	adc     #$04
	ldy     #$02
	sta     (sp),y
	ldy     #$04
	lda     (sp),y
	clc
	adc     #$18
	ldy     #$01
	sta     (sp),y
	txa
	dey
	sta     (sp),y
	jsr     _set_car
	ldy     #$02
;
; while (id < 64) {
;
	jmp     L0867
;
; OAM[id * 4] = 0xFF;
;
L0869:	lda     (sp),y
	jsr     shlax2
	inx
	inx
	sta     ptr1
	stx     ptr1+1
	lda     #$FF
	ldy     #$00
	sta     (ptr1),y
;
; ++id;
;
	ldy     #$02
	clc
	lda     #$01
	adc     (sp),y
L0867:	sta     (sp),y
;
; while (id < 64) {
;
	ldx     #$00
L086B:	lda     (sp),y
	cmp     #$40
	bcc     L0869
;
; }
;
	jmp     incsp3

.endproc

; ---------------------------------------------------------------
; void __near__ draw_gameover (void)
; ---------------------------------------------------------------

.segment	"CODE"

.proc	_draw_gameover: near

.segment	"CODE"

;
; unsigned char id = 0;
;
	lda     #$00
	jsr     pusha
;
; unsigned char x = 88, y = 100;
;
	lda     #$58
	jsr     pusha
	lda     #$64
	jsr     pusha
;
; id = set_sprite(id, x,      y, SPR_LETTER + 6,  1);  // G
;
	jsr     decsp4
	ldy     #$06
	lda     (sp),y
	ldy     #$03
	sta     (sp),y
	ldy     #$05
	lda     (sp),y
	ldy     #$02
	sta     (sp),y
	ldy     #$04
	lda     (sp),y
	ldy     #$01
	sta     (sp),y
	lda     #$36
	dey
	sta     (sp),y
	lda     #$01
	jsr     _set_sprite
	ldy     #$02
	sta     (sp),y
;
; id = set_sprite(id, x + 8,  y, SPR_LETTER + 0,  1);  // A
;
	jsr     decsp4
	ldy     #$06
	lda     (sp),y
	ldy     #$03
	sta     (sp),y
	ldy     #$05
	lda     (sp),y
	clc
	adc     #$08
	ldy     #$02
	sta     (sp),y
	ldy     #$04
	lda     (sp),y
	ldy     #$01
	sta     (sp),y
	lda     #$30
	dey
	sta     (sp),y
	lda     #$01
	jsr     _set_sprite
	ldy     #$02
	sta     (sp),y
;
; id = set_sprite(id, x + 16, y, SPR_LETTER + 12, 1);  // M
;
	jsr     decsp4
	ldy     #$06
	lda     (sp),y
	ldy     #$03
	sta     (sp),y
	ldy     #$05
	lda     (sp),y
	clc
	adc     #$10
	ldy     #$02
	sta     (sp),y
	ldy     #$04
	lda     (sp),y
	ldy     #$01
	sta     (sp),y
	lda     #$3C
	dey
	sta     (sp),y
	lda     #$01
	jsr     _set_sprite
	ldy     #$02
	sta     (sp),y
;
; id = set_sprite(id, x + 24, y, SPR_LETTER + 4,  1);  // E
;
	jsr     decsp4
	ldy     #$06
	lda     (sp),y
	ldy     #$03
	sta     (sp),y
	ldy     #$05
	lda     (sp),y
	clc
	adc     #$18
	ldy     #$02
	sta     (sp),y
	ldy     #$04
	lda     (sp),y
	ldy     #$01
	sta     (sp),y
	lda     #$34
	dey
	sta     (sp),y
	lda     #$01
	jsr     _set_sprite
	ldy     #$02
	sta     (sp),y
;
; x = 96; y = 116;
;
	lda     #$60
	dey
	sta     (sp),y
	lda     #$74
	dey
	sta     (sp),y
;
; id = set_sprite(id, x,      y, SPR_LETTER + 14, 1);  // O
;
	jsr     decsp4
	ldy     #$06
	lda     (sp),y
	ldy     #$03
	sta     (sp),y
	ldy     #$05
	lda     (sp),y
	ldy     #$02
	sta     (sp),y
	ldy     #$04
	lda     (sp),y
	ldy     #$01
	sta     (sp),y
	lda     #$3E
	dey
	sta     (sp),y
	lda     #$01
	jsr     _set_sprite
	ldy     #$02
	sta     (sp),y
;
; id = set_sprite(id, x + 8,  y, SPR_LETTER + 21, 1);  // V
;
	jsr     decsp4
	ldy     #$06
	lda     (sp),y
	ldy     #$03
	sta     (sp),y
	ldy     #$05
	lda     (sp),y
	clc
	adc     #$08
	ldy     #$02
	sta     (sp),y
	ldy     #$04
	lda     (sp),y
	ldy     #$01
	sta     (sp),y
	lda     #$45
	dey
	sta     (sp),y
	lda     #$01
	jsr     _set_sprite
	ldy     #$02
	sta     (sp),y
;
; id = set_sprite(id, x + 16, y, SPR_LETTER + 4,  1);  // E
;
	jsr     decsp4
	ldy     #$06
	lda     (sp),y
	ldy     #$03
	sta     (sp),y
	ldy     #$05
	lda     (sp),y
	clc
	adc     #$10
	ldy     #$02
	sta     (sp),y
	ldy     #$04
	lda     (sp),y
	ldy     #$01
	sta     (sp),y
	lda     #$34
	dey
	sta     (sp),y
	lda     #$01
	jsr     _set_sprite
	ldy     #$02
	sta     (sp),y
;
; id = set_sprite(id, x + 24, y, SPR_LETTER + 17, 1);  // R
;
	jsr     decsp4
	ldy     #$06
	lda     (sp),y
	ldy     #$03
	sta     (sp),y
	ldy     #$05
	lda     (sp),y
	clc
	adc     #$18
	ldy     #$02
	sta     (sp),y
	ldy     #$04
	lda     (sp),y
	ldy     #$01
	sta     (sp),y
	lda     #$41
	dey
	sta     (sp),y
	lda     #$01
	jsr     _set_sprite
	ldy     #$02
;
; while (id < 64) {
;
	jmp     L086C
;
; OAM[id * 4] = 0xFF;
;
L086E:	lda     (sp),y
	jsr     shlax2
	inx
	inx
	sta     ptr1
	stx     ptr1+1
	lda     #$FF
	ldy     #$00
	sta     (ptr1),y
;
; ++id;
;
	ldy     #$02
	clc
	lda     #$01
	adc     (sp),y
L086C:	sta     (sp),y
;
; while (id < 64) {
;
	ldx     #$00
	lda     (sp),y
	cmp     #$40
	bcc     L086E
;
; }
;
	jmp     incsp3

.endproc

; ---------------------------------------------------------------
; void __near__ update_win_animation (void)
; ---------------------------------------------------------------

.segment	"CODE"

.proc	_update_win_animation: near

.segment	"CODE"

;
; ++win_timer;
;
	jsr     decsp1
	inc     _win_timer
;
; for (i = 0; i < MAX_CONFETTI; ++i) {
;
	lda     #$00
	tay
L0871:	sta     (sp),y
	cmp     #$0C
	bcc     L0873
;
; }
;
	jmp     incsp1
;
; confetti_y[i] += 1 + (i & 1);  // Different speeds
;
L0873:	lda     #<(_confetti_y)
	ldx     #>(_confetti_y)
	clc
	adc     (sp),y
	bcc     L05BA
	inx
L05BA:	jsr     pushax
	sta     ptr1
	stx     ptr1+1
	ldy     #$00
	lda     (ptr1),y
	sta     ptr1
	ldy     #$02
	lda     (sp),y
	and     #$01
	clc
	adc     #$01
	bcc     L0872
	clc
L0872:	adc     ptr1
	ldy     #$00
	jsr     staspidx
;
; if (frame_count & 2) {
;
	lda     _frame_count
	and     #$02
	beq     L05BE
;
; if (i & 1) {
;
	ldy     #$00
	lda     (sp),y
	and     #$01
	beq     L05C0
;
; confetti_x[i] += 1;
;
	lda     #<(_confetti_x)
	ldx     #>(_confetti_x)
	clc
	adc     (sp),y
	bcc     L05C4
	inx
L05C4:	sta     ptr1
	stx     ptr1+1
	lda     (ptr1),y
	clc
	adc     #$01
;
; } else {
;
	jmp     L0870
;
; confetti_x[i] -= 1;
;
L05C0:	lda     #<(_confetti_x)
	ldx     #>(_confetti_x)
	clc
	adc     (sp),y
	bcc     L05C9
	inx
L05C9:	sta     ptr1
	stx     ptr1+1
	lda     (ptr1),y
	sec
	sbc     #$01
L0870:	sta     (ptr1),y
;
; if (confetti_y[i] > 240) {
;
L05BE:	ldy     #$00
	lda     (sp),y
	tay
	lda     _confetti_y,y
	cmp     #$F1
	bcc     L05B2
;
; confetti_y[i] = 0;
;
	ldy     #$00
	lda     (sp),y
	tay
	lda     #$00
	sta     _confetti_y,y
;
; confetti_x[i] = 32 + (rnd() & 0x7F) + (rnd() & 0x3F);
;
	lda     #<(_confetti_x)
	ldx     #>(_confetti_x)
	ldy     #$00
	clc
	adc     (sp),y
	bcc     L05D5
	inx
L05D5:	jsr     pushax
	jsr     _rnd
	ldx     #$00
	and     #$7F
	clc
	adc     #$20
	bcc     L05D8
	inx
L05D8:	jsr     pushax
	jsr     _rnd
	and     #$3F
	jsr     tosadda0
	ldy     #$00
	jsr     staspidx
;
; for (i = 0; i < MAX_CONFETTI; ++i) {
;
L05B2:	ldy     #$00
	clc
	lda     #$01
	adc     (sp),y
	jmp     L0871

.endproc

; ---------------------------------------------------------------
; void __near__ draw_win (void)
; ---------------------------------------------------------------

.segment	"CODE"

.proc	_draw_win: near

.segment	"CODE"

;
; unsigned char id = 0;
;
	lda     #$00
	jsr     pusha
;
; bounce = 0;
;
	jsr     decsp7
	lda     #$00
	tay
	sta     (sp),y
;
; if (win_timer < 60) {
;
	lda     _win_timer
	cmp     #$3C
	bcs     L0877
;
; bounce = (win_timer >> 2) & 0x03;
;
	lsr     a
	lsr     a
	and     #$03
	sta     (sp),y
;
; if (bounce > 2) bounce = 4 - bounce;
;
	cmp     #$03
	tya
	bcc     L0878
	lda     #$04
	sec
	sbc     (sp),y
	sta     (sp),y
;
; for (i = 0; i < MAX_CONFETTI && id < 20; ++i) {
;
L0877:	tya
L0878:	ldy     #$02
L0875:	sta     (sp),y
	cmp     #$0C
	bcs     L087B
	ldy     #$07
	lda     (sp),y
	cmp     #$14
	bcs     L087B
;
; id = set_sprite(id, confetti_x[i], confetti_y[i],
;
	jsr     decsp4
	ldy     #$0B
	lda     (sp),y
	ldy     #$03
	sta     (sp),y
	ldy     #$06
	lda     (sp),y
	tay
	lda     _confetti_x,y
	ldy     #$02
	sta     (sp),y
	ldy     #$06
	lda     (sp),y
	tay
	lda     _confetti_y,y
	ldy     #$01
	sta     (sp),y
;
; SPR_BULLET + (i & 1), confetti_color[i]);
;
	ldy     #$06
	lda     (sp),y
	and     #$01
	clc
	adc     #$0B
	ldy     #$00
	sta     (sp),y
	ldy     #$06
	lda     (sp),y
	tay
	lda     _confetti_color,y
	jsr     _set_sprite
	ldy     #$07
	sta     (sp),y
;
; for (i = 0; i < MAX_CONFETTI && id < 20; ++i) {
;
	ldy     #$02
	clc
	lda     #$01
	adc     (sp),y
	jmp     L0875
;
; text_y = 60 - bounce;
;
L087B:	lda     #$3C
	sec
	ldy     #$00
	sbc     (sp),y
	iny
	sta     (sp),y
;
; x = 84;
;
	lda     #$54
	ldy     #$06
	sta     (sp),y
;
; id = set_sprite(id, x,      text_y, SPR_LETTER + 5,  0);  // F
;
	jsr     decsp4
	ldy     #$0B
	lda     (sp),y
	ldy     #$03
	sta     (sp),y
	ldy     #$0A
	lda     (sp),y
	ldy     #$02
	sta     (sp),y
	ldy     #$05
	lda     (sp),y
	ldy     #$01
	sta     (sp),y
	lda     #$35
	dey
	sta     (sp),y
	tya
	jsr     _set_sprite
	ldy     #$07
	sta     (sp),y
;
; id = set_sprite(id, x + 8,  text_y, SPR_LETTER + 8,  0);  // I
;
	jsr     decsp4
	ldy     #$0B
	lda     (sp),y
	ldy     #$03
	sta     (sp),y
	ldy     #$0A
	lda     (sp),y
	clc
	adc     #$08
	ldy     #$02
	sta     (sp),y
	ldy     #$05
	lda     (sp),y
	ldy     #$01
	sta     (sp),y
	lda     #$38
	dey
	sta     (sp),y
	tya
	jsr     _set_sprite
	ldy     #$07
	sta     (sp),y
;
; id = set_sprite(id, x + 16, text_y, SPR_LETTER + 13, 0);  // N
;
	jsr     decsp4
	ldy     #$0B
	lda     (sp),y
	ldy     #$03
	sta     (sp),y
	ldy     #$0A
	lda     (sp),y
	clc
	adc     #$10
	ldy     #$02
	sta     (sp),y
	ldy     #$05
	lda     (sp),y
	ldy     #$01
	sta     (sp),y
	lda     #$3D
	dey
	sta     (sp),y
	tya
	jsr     _set_sprite
	ldy     #$07
	sta     (sp),y
;
; id = set_sprite(id, x + 24, text_y, SPR_LETTER + 8,  0);  // I
;
	jsr     decsp4
	ldy     #$0B
	lda     (sp),y
	ldy     #$03
	sta     (sp),y
	ldy     #$0A
	lda     (sp),y
	clc
	adc     #$18
	ldy     #$02
	sta     (sp),y
	ldy     #$05
	lda     (sp),y
	ldy     #$01
	sta     (sp),y
	lda     #$38
	dey
	sta     (sp),y
	tya
	jsr     _set_sprite
	ldy     #$07
	sta     (sp),y
;
; id = set_sprite(id, x + 32, text_y, SPR_LETTER + 18, 0);  // S
;
	jsr     decsp4
	ldy     #$0B
	lda     (sp),y
	ldy     #$03
	sta     (sp),y
	ldy     #$0A
	lda     (sp),y
	clc
	adc     #$20
	ldy     #$02
	sta     (sp),y
	ldy     #$05
	lda     (sp),y
	ldy     #$01
	sta     (sp),y
	lda     #$42
	dey
	sta     (sp),y
	tya
	jsr     _set_sprite
	ldy     #$07
	sta     (sp),y
;
; id = set_sprite(id, x + 40, text_y, SPR_LETTER + 7,  0);  // H
;
	jsr     decsp4
	ldy     #$0B
	lda     (sp),y
	ldy     #$03
	sta     (sp),y
	ldy     #$0A
	lda     (sp),y
	clc
	adc     #$28
	ldy     #$02
	sta     (sp),y
	ldy     #$05
	lda     (sp),y
	ldy     #$01
	sta     (sp),y
	lda     #$37
	dey
	sta     (sp),y
	tya
	jsr     _set_sprite
	ldy     #$07
	sta     (sp),y
;
; y = 90;
;
	lda     #$5A
	ldy     #$05
	sta     (sp),y
;
; x = 88;
;
	lda     #$58
	iny
	sta     (sp),y
;
; id = set_sprite(id, x,      y, SPR_DIGIT + 1, 3);         // 1
;
	jsr     decsp4
	ldy     #$0B
	lda     (sp),y
	ldy     #$03
	sta     (sp),y
	ldy     #$0A
	lda     (sp),y
	ldy     #$02
	sta     (sp),y
	ldy     #$09
	lda     (sp),y
	ldy     #$01
	sta     (sp),y
	lda     #$11
	dey
	sta     (sp),y
	lda     #$03
	jsr     _set_sprite
	ldy     #$07
	sta     (sp),y
;
; id = set_sprite(id, x + 8,  y, SPR_LETTER + 18, 3);       // S
;
	jsr     decsp4
	ldy     #$0B
	lda     (sp),y
	ldy     #$03
	sta     (sp),y
	ldy     #$0A
	lda     (sp),y
	clc
	adc     #$08
	ldy     #$02
	sta     (sp),y
	ldy     #$09
	lda     (sp),y
	ldy     #$01
	sta     (sp),y
	lda     #$42
	dey
	sta     (sp),y
	lda     #$03
	jsr     _set_sprite
	ldy     #$07
	sta     (sp),y
;
; id = set_sprite(id, x + 16, y, SPR_LETTER + 19, 3);       // T
;
	jsr     decsp4
	ldy     #$0B
	lda     (sp),y
	ldy     #$03
	sta     (sp),y
	ldy     #$0A
	lda     (sp),y
	clc
	adc     #$10
	ldy     #$02
	sta     (sp),y
	ldy     #$09
	lda     (sp),y
	ldy     #$01
	sta     (sp),y
	lda     #$43
	dey
	sta     (sp),y
	lda     #$03
	jsr     _set_sprite
	ldy     #$07
	sta     (sp),y
;
; x = 116;
;
	lda     #$74
	dey
	sta     (sp),y
;
; id = set_sprite(id, x,      y, SPR_LETTER + 15, 3);       // P
;
	jsr     decsp4
	ldy     #$0B
	lda     (sp),y
	ldy     #$03
	sta     (sp),y
	ldy     #$0A
	lda     (sp),y
	ldy     #$02
	sta     (sp),y
	ldy     #$09
	lda     (sp),y
	ldy     #$01
	sta     (sp),y
	lda     #$3F
	dey
	sta     (sp),y
	lda     #$03
	jsr     _set_sprite
	ldy     #$07
	sta     (sp),y
;
; id = set_sprite(id, x + 8,  y, SPR_LETTER + 11, 3);       // L
;
	jsr     decsp4
	ldy     #$0B
	lda     (sp),y
	ldy     #$03
	sta     (sp),y
	ldy     #$0A
	lda     (sp),y
	clc
	adc     #$08
	ldy     #$02
	sta     (sp),y
	ldy     #$09
	lda     (sp),y
	ldy     #$01
	sta     (sp),y
	lda     #$3B
	dey
	sta     (sp),y
	lda     #$03
	jsr     _set_sprite
	ldy     #$07
	sta     (sp),y
;
; id = set_sprite(id, x + 16, y, SPR_LETTER + 0,  3);       // A
;
	jsr     decsp4
	ldy     #$0B
	lda     (sp),y
	ldy     #$03
	sta     (sp),y
	ldy     #$0A
	lda     (sp),y
	clc
	adc     #$10
	ldy     #$02
	sta     (sp),y
	ldy     #$09
	lda     (sp),y
	ldy     #$01
	sta     (sp),y
	lda     #$30
	dey
	sta     (sp),y
	lda     #$03
	jsr     _set_sprite
	ldy     #$07
	sta     (sp),y
;
; id = set_sprite(id, x + 24, y, SPR_LETTER + 2,  3);       // C
;
	jsr     decsp4
	ldy     #$0B
	lda     (sp),y
	ldy     #$03
	sta     (sp),y
	ldy     #$0A
	lda     (sp),y
	clc
	adc     #$18
	ldy     #$02
	sta     (sp),y
	ldy     #$09
	lda     (sp),y
	ldy     #$01
	sta     (sp),y
	lda     #$32
	dey
	sta     (sp),y
	lda     #$03
	jsr     _set_sprite
	ldy     #$07
	sta     (sp),y
;
; id = set_sprite(id, x + 32, y, SPR_LETTER + 4,  3);       // E
;
	jsr     decsp4
	ldy     #$0B
	lda     (sp),y
	ldy     #$03
	sta     (sp),y
	ldy     #$0A
	lda     (sp),y
	clc
	adc     #$20
	ldy     #$02
	sta     (sp),y
	ldy     #$09
	lda     (sp),y
	ldy     #$01
	sta     (sp),y
	lda     #$34
	dey
	sta     (sp),y
	lda     #$03
	jsr     _set_sprite
	ldy     #$07
	sta     (sp),y
;
; y = 115;
;
	lda     #$73
	ldy     #$05
	sta     (sp),y
;
; x = 112;
;
	lda     #$70
	iny
	sta     (sp),y
;
; if (frame_count & 0x10) {
;
	lda     _frame_count
	and     #$10
	beq     L067B
;
; id = set_car(id, x, y, SPR_CAR, 0);
;
	jsr     decsp4
	ldy     #$0B
	lda     (sp),y
	ldy     #$03
	sta     (sp),y
	ldy     #$0A
	lda     (sp),y
	ldy     #$02
	sta     (sp),y
	ldy     #$09
	lda     (sp),y
	ldy     #$01
	sta     (sp),y
	lda     #$00
	dey
	sta     (sp),y
;
; } else {
;
	jmp     L0883
;
; id = set_car(id, x, y, SPR_CAR, 0 | 0x40);  // H-flip
;
L067B:	jsr     decsp4
	ldy     #$0B
	lda     (sp),y
	ldy     #$03
	sta     (sp),y
	ldy     #$0A
	lda     (sp),y
	ldy     #$02
	sta     (sp),y
	ldy     #$09
	lda     (sp),y
	ldy     #$01
	sta     (sp),y
	lda     #$00
	dey
	sta     (sp),y
	lda     #$40
L0883:	jsr     _set_car
	ldy     #$07
	sta     (sp),y
;
; y = 150;
;
	lda     #$96
	ldy     #$05
	sta     (sp),y
;
; x = 88;
;
	lda     #$58
	iny
	sta     (sp),y
;
; id = set_sprite(id, x,      y, SPR_LETTER + 18, 3);  // S
;
	jsr     decsp4
	ldy     #$0B
	lda     (sp),y
	ldy     #$03
	sta     (sp),y
	ldy     #$0A
	lda     (sp),y
	ldy     #$02
	sta     (sp),y
	ldy     #$09
	lda     (sp),y
	ldy     #$01
	sta     (sp),y
	lda     #$42
	dey
	sta     (sp),y
	lda     #$03
	jsr     _set_sprite
	ldy     #$07
	sta     (sp),y
;
; id = set_sprite(id, x + 8,  y, SPR_LETTER + 2,  3);  // C
;
	jsr     decsp4
	ldy     #$0B
	lda     (sp),y
	ldy     #$03
	sta     (sp),y
	ldy     #$0A
	lda     (sp),y
	clc
	adc     #$08
	ldy     #$02
	sta     (sp),y
	ldy     #$09
	lda     (sp),y
	ldy     #$01
	sta     (sp),y
	lda     #$32
	dey
	sta     (sp),y
	lda     #$03
	jsr     _set_sprite
	ldy     #$07
	sta     (sp),y
;
; id = set_sprite(id, x + 16, y, SPR_LETTER + 14, 3);  // O
;
	jsr     decsp4
	ldy     #$0B
	lda     (sp),y
	ldy     #$03
	sta     (sp),y
	ldy     #$0A
	lda     (sp),y
	clc
	adc     #$10
	ldy     #$02
	sta     (sp),y
	ldy     #$09
	lda     (sp),y
	ldy     #$01
	sta     (sp),y
	lda     #$3E
	dey
	sta     (sp),y
	lda     #$03
	jsr     _set_sprite
	ldy     #$07
	sta     (sp),y
;
; id = set_sprite(id, x + 24, y, SPR_LETTER + 17, 3);  // R
;
	jsr     decsp4
	ldy     #$0B
	lda     (sp),y
	ldy     #$03
	sta     (sp),y
	ldy     #$0A
	lda     (sp),y
	clc
	adc     #$18
	ldy     #$02
	sta     (sp),y
	ldy     #$09
	lda     (sp),y
	ldy     #$01
	sta     (sp),y
	lda     #$41
	dey
	sta     (sp),y
	lda     #$03
	jsr     _set_sprite
	ldy     #$07
	sta     (sp),y
;
; id = set_sprite(id, x + 32, y, SPR_LETTER + 4,  3);  // E
;
	jsr     decsp4
	ldy     #$0B
	lda     (sp),y
	ldy     #$03
	sta     (sp),y
	ldy     #$0A
	lda     (sp),y
	clc
	adc     #$20
	ldy     #$02
	sta     (sp),y
	ldy     #$09
	lda     (sp),y
	ldy     #$01
	sta     (sp),y
	lda     #$34
	dey
	sta     (sp),y
	lda     #$03
	jsr     _set_sprite
	ldy     #$07
	sta     (sp),y
;
; y = 165;
;
	lda     #$A5
	ldy     #$05
	sta     (sp),y
;
; x = 96;
;
	lda     #$60
	iny
	sta     (sp),y
;
; s = score;
;
	lda     _score
	ldx     _score+1
	ldy     #$03
	jsr     staxysp
;
; if (s > 999) s = 999;  // Cap display
;
	cmp     #$E8
	txa
	sbc     #$03
	bcc     L06BD
	ldy     #$03
	lda     #$E7
	sta     (sp),y
	tya
	iny
	sta     (sp),y
;
; id = set_sprite(id, x,      y, SPR_DIGIT + (unsigned char)(s / 100), 3);
;
L06BD:	jsr     decsp4
	ldy     #$0B
	lda     (sp),y
	ldy     #$03
	sta     (sp),y
	ldy     #$0A
	lda     (sp),y
	ldy     #$02
	sta     (sp),y
	ldy     #$09
	lda     (sp),y
	ldy     #$01
	sta     (sp),y
	ldy     #$0A
	jsr     pushwysp
	lda     #$64
	jsr     tosudiva0
	clc
	adc     #$10
	ldy     #$00
	sta     (sp),y
	lda     #$03
	jsr     _set_sprite
	ldy     #$07
	sta     (sp),y
;
; id = set_sprite(id, x + 8,  y, SPR_DIGIT + (unsigned char)((s / 10) % 10), 3);
;
	jsr     decsp4
	ldy     #$0B
	lda     (sp),y
	ldy     #$03
	sta     (sp),y
	ldy     #$0A
	lda     (sp),y
	clc
	adc     #$08
	ldy     #$02
	sta     (sp),y
	ldy     #$09
	lda     (sp),y
	ldy     #$01
	sta     (sp),y
	ldy     #$0A
	jsr     pushwysp
	lda     #$0A
	jsr     tosudiva0
	jsr     pushax
	lda     #$0A
	jsr     tosumoda0
	clc
	adc     #$10
	ldy     #$00
	sta     (sp),y
	lda     #$03
	jsr     _set_sprite
	ldy     #$07
	sta     (sp),y
;
; id = set_sprite(id, x + 16, y, SPR_DIGIT + (unsigned char)(s % 10), 3);
;
	jsr     decsp4
	ldy     #$0B
	lda     (sp),y
	ldy     #$03
	sta     (sp),y
	ldy     #$0A
	lda     (sp),y
	clc
	adc     #$10
	ldy     #$02
	sta     (sp),y
	ldy     #$09
	lda     (sp),y
	ldy     #$01
	sta     (sp),y
	ldy     #$0A
	jsr     pushwysp
	lda     #$0A
	jsr     tosumoda0
	clc
	adc     #$10
	ldy     #$00
	sta     (sp),y
	lda     #$03
	jsr     _set_sprite
	ldy     #$07
	sta     (sp),y
;
; id = set_sprite(id, x + 24, y, SPR_LETTER + 15, 3);  // P
;
	jsr     decsp4
	ldy     #$0B
	lda     (sp),y
	ldy     #$03
	sta     (sp),y
	ldy     #$0A
	lda     (sp),y
	clc
	adc     #$18
	ldy     #$02
	sta     (sp),y
	ldy     #$09
	lda     (sp),y
	ldy     #$01
	sta     (sp),y
	lda     #$3F
	dey
	sta     (sp),y
	lda     #$03
	jsr     _set_sprite
	ldy     #$07
	sta     (sp),y
;
; id = set_sprite(id, x + 32, y, SPR_LETTER + 19, 3);  // T (PTS)
;
	jsr     decsp4
	ldy     #$0B
	lda     (sp),y
	ldy     #$03
	sta     (sp),y
	ldy     #$0A
	lda     (sp),y
	clc
	adc     #$20
	ldy     #$02
	sta     (sp),y
	ldy     #$09
	lda     (sp),y
	ldy     #$01
	sta     (sp),y
	lda     #$43
	dey
	sta     (sp),y
	lda     #$03
	jsr     _set_sprite
	ldy     #$07
	sta     (sp),y
;
; id = set_sprite(id, x + 40, y, SPR_LETTER + 18, 3);  // S
;
	jsr     decsp4
	ldy     #$0B
	lda     (sp),y
	ldy     #$03
	sta     (sp),y
	ldy     #$0A
	lda     (sp),y
	clc
	adc     #$28
	ldy     #$02
	sta     (sp),y
	ldy     #$09
	lda     (sp),y
	ldy     #$01
	sta     (sp),y
	lda     #$42
	dey
	sta     (sp),y
	lda     #$03
	jsr     _set_sprite
	ldy     #$07
	sta     (sp),y
;
; if (win_timer > 90 && (frame_count & 0x20)) {
;
	lda     _win_timer
	cmp     #$5B
	jcc     L0881
	lda     _frame_count
	and     #$20
	jeq     L0881
;
; y = 200;
;
	lda     #$C8
	ldy     #$05
	sta     (sp),y
;
; x = 72;
;
	lda     #$48
	iny
	sta     (sp),y
;
; id = set_sprite(id, x,      y, SPR_LETTER + 15, 3);  // P
;
	jsr     decsp4
	ldy     #$0B
	lda     (sp),y
	ldy     #$03
	sta     (sp),y
	ldy     #$0A
	lda     (sp),y
	ldy     #$02
	sta     (sp),y
	ldy     #$09
	lda     (sp),y
	ldy     #$01
	sta     (sp),y
	lda     #$3F
	dey
	sta     (sp),y
	lda     #$03
	jsr     _set_sprite
	ldy     #$07
	sta     (sp),y
;
; id = set_sprite(id, x + 8,  y, SPR_LETTER + 17, 3);  // R
;
	jsr     decsp4
	ldy     #$0B
	lda     (sp),y
	ldy     #$03
	sta     (sp),y
	ldy     #$0A
	lda     (sp),y
	clc
	adc     #$08
	ldy     #$02
	sta     (sp),y
	ldy     #$09
	lda     (sp),y
	ldy     #$01
	sta     (sp),y
	lda     #$41
	dey
	sta     (sp),y
	lda     #$03
	jsr     _set_sprite
	ldy     #$07
	sta     (sp),y
;
; id = set_sprite(id, x + 16, y, SPR_LETTER + 4,  3);  // E
;
	jsr     decsp4
	ldy     #$0B
	lda     (sp),y
	ldy     #$03
	sta     (sp),y
	ldy     #$0A
	lda     (sp),y
	clc
	adc     #$10
	ldy     #$02
	sta     (sp),y
	ldy     #$09
	lda     (sp),y
	ldy     #$01
	sta     (sp),y
	lda     #$34
	dey
	sta     (sp),y
	lda     #$03
	jsr     _set_sprite
	ldy     #$07
	sta     (sp),y
;
; id = set_sprite(id, x + 24, y, SPR_LETTER + 18, 3);  // S
;
	jsr     decsp4
	ldy     #$0B
	lda     (sp),y
	ldy     #$03
	sta     (sp),y
	ldy     #$0A
	lda     (sp),y
	clc
	adc     #$18
	ldy     #$02
	sta     (sp),y
	ldy     #$09
	lda     (sp),y
	ldy     #$01
	sta     (sp),y
	lda     #$42
	dey
	sta     (sp),y
	lda     #$03
	jsr     _set_sprite
	ldy     #$07
	sta     (sp),y
;
; id = set_sprite(id, x + 32, y, SPR_LETTER + 18, 3);  // S
;
	jsr     decsp4
	ldy     #$0B
	lda     (sp),y
	ldy     #$03
	sta     (sp),y
	ldy     #$0A
	lda     (sp),y
	clc
	adc     #$20
	ldy     #$02
	sta     (sp),y
	ldy     #$09
	lda     (sp),y
	ldy     #$01
	sta     (sp),y
	lda     #$42
	dey
	sta     (sp),y
	lda     #$03
	jsr     _set_sprite
	ldy     #$07
	sta     (sp),y
;
; x = 128;
;
	lda     #$80
	dey
	sta     (sp),y
;
; id = set_sprite(id, x,      y, SPR_LETTER + 18, 3);  // S
;
	jsr     decsp4
	ldy     #$0B
	lda     (sp),y
	ldy     #$03
	sta     (sp),y
	ldy     #$0A
	lda     (sp),y
	ldy     #$02
	sta     (sp),y
	ldy     #$09
	lda     (sp),y
	ldy     #$01
	sta     (sp),y
	lda     #$42
	dey
	sta     (sp),y
	lda     #$03
	jsr     _set_sprite
	ldy     #$07
	sta     (sp),y
;
; id = set_sprite(id, x + 8,  y, SPR_LETTER + 19, 3);  // T
;
	jsr     decsp4
	ldy     #$0B
	lda     (sp),y
	ldy     #$03
	sta     (sp),y
	ldy     #$0A
	lda     (sp),y
	clc
	adc     #$08
	ldy     #$02
	sta     (sp),y
	ldy     #$09
	lda     (sp),y
	ldy     #$01
	sta     (sp),y
	lda     #$43
	dey
	sta     (sp),y
	lda     #$03
	jsr     _set_sprite
	ldy     #$07
	sta     (sp),y
;
; id = set_sprite(id, x + 16, y, SPR_LETTER + 0,  3);  // A
;
	jsr     decsp4
	ldy     #$0B
	lda     (sp),y
	ldy     #$03
	sta     (sp),y
	ldy     #$0A
	lda     (sp),y
	clc
	adc     #$10
	ldy     #$02
	sta     (sp),y
	ldy     #$09
	lda     (sp),y
	ldy     #$01
	sta     (sp),y
	lda     #$30
	dey
	sta     (sp),y
	lda     #$03
	jsr     _set_sprite
	ldy     #$07
	sta     (sp),y
;
; id = set_sprite(id, x + 24, y, SPR_LETTER + 17, 3);  // R
;
	jsr     decsp4
	ldy     #$0B
	lda     (sp),y
	ldy     #$03
	sta     (sp),y
	ldy     #$0A
	lda     (sp),y
	clc
	adc     #$18
	ldy     #$02
	sta     (sp),y
	ldy     #$09
	lda     (sp),y
	ldy     #$01
	sta     (sp),y
	lda     #$41
	dey
	sta     (sp),y
	lda     #$03
	jsr     _set_sprite
	ldy     #$07
	sta     (sp),y
;
; id = set_sprite(id, x + 32, y, SPR_LETTER + 19, 3);  // T
;
	jsr     decsp4
	ldy     #$0B
	lda     (sp),y
	ldy     #$03
	sta     (sp),y
	ldy     #$0A
	lda     (sp),y
	clc
	adc     #$20
	ldy     #$02
	sta     (sp),y
	ldy     #$09
	lda     (sp),y
	ldy     #$01
	sta     (sp),y
	lda     #$43
	dey
	sta     (sp),y
	lda     #$03
	jsr     _set_sprite
	ldy     #$07
;
; while (id < 64) {
;
	jmp     L0884
;
; OAM[id * 4] = 0xFF;
;
L0880:	lda     (sp),y
	jsr     shlax2
	inx
	inx
	sta     ptr1
	stx     ptr1+1
	lda     #$FF
	ldy     #$00
	sta     (ptr1),y
;
; ++id;
;
	ldy     #$07
	clc
	lda     #$01
	adc     (sp),y
L0884:	sta     (sp),y
;
; while (id < 64) {
;
L0881:	ldx     #$00
	lda     (sp),y
	cmp     #$40
	bcc     L0880
;
; }
;
	jmp     incsp8

.endproc

; ---------------------------------------------------------------
; void __near__ draw_pause (void)
; ---------------------------------------------------------------

.segment	"CODE"

.proc	_draw_pause: near

.segment	"CODE"

;
; unsigned char id = 0;
;
	lda     #$00
	jsr     pusha
;
; unsigned char x = 92, y = 100;
;
	lda     #$5C
	jsr     pusha
	lda     #$64
	jsr     pusha
;
; draw_game();
;
	jsr     _draw_game
;
; if (frame_count & 0x10) {
;
	lda     _frame_count
	and     #$10
	bne     L0885
;
; }
;
	jmp     incsp3
;
; id = set_sprite(id, x,      y, SPR_LETTER + 15, 3);  // P
;
L0885:	jsr     decsp4
	ldy     #$06
	lda     (sp),y
	ldy     #$03
	sta     (sp),y
	ldy     #$05
	lda     (sp),y
	ldy     #$02
	sta     (sp),y
	ldy     #$04
	lda     (sp),y
	ldy     #$01
	sta     (sp),y
	lda     #$3F
	dey
	sta     (sp),y
	lda     #$03
	jsr     _set_sprite
	ldy     #$02
	sta     (sp),y
;
; id = set_sprite(id, x + 8,  y, SPR_LETTER + 0,  3);  // A
;
	jsr     decsp4
	ldy     #$06
	lda     (sp),y
	ldy     #$03
	sta     (sp),y
	ldy     #$05
	lda     (sp),y
	clc
	adc     #$08
	ldy     #$02
	sta     (sp),y
	ldy     #$04
	lda     (sp),y
	ldy     #$01
	sta     (sp),y
	lda     #$30
	dey
	sta     (sp),y
	lda     #$03
	jsr     _set_sprite
	ldy     #$02
	sta     (sp),y
;
; id = set_sprite(id, x + 16, y, SPR_LETTER + 20, 3);  // U
;
	jsr     decsp4
	ldy     #$06
	lda     (sp),y
	ldy     #$03
	sta     (sp),y
	ldy     #$05
	lda     (sp),y
	clc
	adc     #$10
	ldy     #$02
	sta     (sp),y
	ldy     #$04
	lda     (sp),y
	ldy     #$01
	sta     (sp),y
	lda     #$44
	dey
	sta     (sp),y
	lda     #$03
	jsr     _set_sprite
	ldy     #$02
	sta     (sp),y
;
; id = set_sprite(id, x + 24, y, SPR_LETTER + 18, 3);  // S
;
	jsr     decsp4
	ldy     #$06
	lda     (sp),y
	ldy     #$03
	sta     (sp),y
	ldy     #$05
	lda     (sp),y
	clc
	adc     #$18
	ldy     #$02
	sta     (sp),y
	ldy     #$04
	lda     (sp),y
	ldy     #$01
	sta     (sp),y
	lda     #$42
	dey
	sta     (sp),y
	lda     #$03
	jsr     _set_sprite
	ldy     #$02
	sta     (sp),y
;
; id = set_sprite(id, x + 32, y, SPR_LETTER + 4,  3);  // E
;
	jsr     decsp4
	ldy     #$06
	lda     (sp),y
	ldy     #$03
	sta     (sp),y
	ldy     #$05
	lda     (sp),y
	clc
	adc     #$20
	ldy     #$02
	sta     (sp),y
	ldy     #$04
	lda     (sp),y
	ldy     #$01
	sta     (sp),y
	lda     #$34
	dey
	sta     (sp),y
	lda     #$03
	jsr     _set_sprite
	ldy     #$02
	sta     (sp),y
;
; }
;
	jmp     incsp3

.endproc

; ---------------------------------------------------------------
; void __near__ main (void)
; ---------------------------------------------------------------

.segment	"CODE"

.proc	_main: near

.segment	"CODE"

;
; rnd_seed = 42;
;
	lda     #$2A
	sta     _rnd_seed
;
; game_state = STATE_TITLE;
;
	lda     #$00
	sta     _game_state
;
; wait_vblank();
;
	jsr     _wait_vblank
;
; wait_vblank();
;
	jsr     _wait_vblank
;
; ppu_off();
;
	jsr     _ppu_off
;
; load_palettes();
;
	jsr     _load_palettes
;
; draw_road();
;
	jsr     _draw_road
;
; PPU_CTRL = 0x88;  // NMI on, sprites at $1000
;
	lda     #$88
	sta     $2000
;
; ppu_on();
;
	jsr     _ppu_on
;
; wait_vblank();
;
L0795:	jsr     _wait_vblank
;
; OAM_ADDR = 0;
;
	lda     #$00
	sta     $2003
;
; OAM_DMA = 0x02;
;
	lda     #$02
	sta     $4014
;
; PPU_SCROLL = 0;
;
	lda     #$00
	sta     $2005
;
; PPU_SCROLL = scroll_y;
;
	lda     _scroll_y
	sta     $2005
;
; pad_old = pad_now;
;
	lda     _pad_now
	sta     _pad_old
;
; pad_now = read_pad();
;
	jsr     _read_pad
	sta     _pad_now
;
; pad_new = pad_now & ~pad_old;
;
	lda     _pad_old
	eor     #$FF
	and     _pad_now
	sta     _pad_new
;
; ++frame_count;
;
	inc     _frame_count
;
; rnd_seed ^= frame_count;
;
	lda     _frame_count
	eor     _rnd_seed
	sta     _rnd_seed
;
; clear_sprites();
;
	jsr     _clear_sprites
;
; switch (game_state) {
;
	lda     _game_state
;
; }
;
	beq     L07B4
	cmp     #$01
	beq     L0886
	cmp     #$02
	beq     L0887
	cmp     #$03
	beq     L07D6
	cmp     #$04
	beq     L07DD
	cmp     #$05
	beq     L07C5
	jmp     L0795
;
; draw_title();
;
L07B4:	jsr     _draw_title
;
; if (pad_new & BTN_START) {
;
	lda     _pad_new
	and     #$10
	beq     L0795
;
; init_game();
;
	jsr     _init_game
;
; game_state = STATE_RACING;
;
	lda     #$01
	sta     _game_state
;
; break;
;
	jmp     L0795
;
; if (pad_new & BTN_START) {
;
L0886:	lda     _pad_new
	and     #$10
	beq     L07BD
;
; game_state = STATE_PAUSED;
;
	lda     #$05
	sta     _game_state
;
; } else {
;
	jmp     L0795
;
; update_game();
;
L07BD:	jsr     _update_game
;
; draw_game();
;
	jsr     _draw_game
;
; break;
;
	jmp     L0795
;
; draw_pause();
;
L07C5:	jsr     _draw_pause
;
; if (pad_new & BTN_START) {
;
	lda     _pad_new
	and     #$10
	jeq     L0795
;
; game_state = STATE_RACING;
;
	lda     #$01
	sta     _game_state
;
; break;
;
	jmp     L0795
;
; ++pit_timer;
;
L0887:	inc     _pit_timer
;
; if (pit_timer >= 60) {
;
	lda     _pit_timer
	cmp     #$3C
	bcc     L07CE
;
; player_hp = PLAYER_MAX_HP;
;
	lda     #$05
	sta     _player_hp
;
; game_state = STATE_RACING;
;
	lda     #$01
	sta     _game_state
;
; draw_game();
;
L07CE:	jsr     _draw_game
;
; break;
;
	jmp     L0795
;
; draw_gameover();
;
L07D6:	jsr     _draw_gameover
;
; if (pad_new & BTN_START) {
;
	lda     _pad_new
	and     #$10
	jeq     L0795
;
; game_state = STATE_TITLE;
;
	lda     #$00
	sta     _game_state
;
; break;
;
	jmp     L0795
;
; update_win_animation();
;
L07DD:	jsr     _update_win_animation
;
; draw_win();
;
	jsr     _draw_win
;
; if (win_timer > 90 && (pad_new & BTN_START)) {
;
	lda     _win_timer
	cmp     #$5B
	jcc     L0795
	lda     _pad_new
	and     #$10
	jeq     L0795
;
; game_state = STATE_TITLE;
;
	lda     #$00
	sta     _game_state
;
; break;
;
	jmp     L0795

.endproc

